

Microchip Technology PIC LITE Macro Assembler V1.35 build -356382666 
                                                                                               Wed Jan 27 00:46:00 2016

Microchip Technology Omniscient Code Generator v1.35 (Free mode) build 201507080246
     1                           	processor	16F1619
     2                           	opt	pw 120
     3                           	opt	lm
     4                           	psect	stringtext,global,class=STRCODE,delta=2
     5                           	psect	nvCOMMON,global,class=COMMON,space=1,delta=1
     6                           	psect	cinit,global,class=CODE,merge=1,delta=2
     7                           	psect	bssCOMMON,global,class=COMMON,space=1,delta=1
     8                           	psect	bssBANK0,global,class=BANK0,space=1,delta=1
     9                           	psect	clrtext,global,class=CODE,delta=2
    10                           	psect	cstackCOMMON,global,class=COMMON,space=1,delta=1
    11                           	psect	cstackBANK0,global,class=BANK0,space=1,delta=1
    12                           	psect	maintext,global,class=CODE,merge=1,split=1,delta=2
    13                           	psect	text1,local,class=CODE,merge=1,delta=2
    14                           	psect	text2,local,class=CODE,merge=1,delta=2
    15                           	psect	text3,local,class=CODE,merge=1,delta=2
    16                           	psect	text4,local,class=CODE,merge=1,delta=2
    17                           	psect	text5,local,class=CODE,merge=1,delta=2
    18                           	psect	text6,local,class=CODE,merge=1,delta=2
    19                           	psect	text7,local,class=CODE,merge=1,delta=2
    20                           	psect	text8,local,class=CODE,merge=1,delta=2
    21                           	psect	text9,local,class=CODE,merge=1,delta=2
    22                           	psect	text10,local,class=CODE,merge=1,delta=2
    23                           	psect	text11,local,class=CODE,merge=1,delta=2
    24                           	psect	intentry,global,class=CODE,delta=2
    25                           	psect	text13,local,class=CODE,merge=1,delta=2
    26                           	psect	text14,local,class=CODE,merge=1,delta=2
    27                           	psect	text15,local,class=CODE,merge=1,delta=2
    28                           	psect	text16,local,class=CODE,merge=1,delta=2
    29                           	psect	text17,local,class=CODE,merge=1,delta=2
    30                           	psect	text18,local,class=CODE,merge=1,delta=2
    31                           	psect	text19,local,class=CODE,merge=1,delta=2
    32                           	dabs	1,0x620,32
    33                           	dabs	1,0x5A0,80
    34                           	dabs	1,0x520,80
    35                           	dabs	1,0x4AE,66
    36                           	dabs	1,0x4A0,14
    37                           	dabs	1,0x420,80
    38                           	dabs	1,0x3A0,80
    39                           	dabs	1,0x320,80
    40                           	dabs	1,0x2EC,4
    41                           	dabs	1,0x21DC,0,_adcBuffer
    42                           	dabs	1,0x22DE,0,_dacBuffer
    43                           	dabs	1,0x7E,2
    44  0000                     	;# 
    45  0001                     	;# 
    46  0002                     	;# 
    47  0003                     	;# 
    48  0004                     	;# 
    49  0005                     	;# 
    50  0006                     	;# 
    51  0007                     	;# 
    52  0008                     	;# 
    53  0009                     	;# 
    54  000A                     	;# 
    55  000B                     	;# 
    56  000C                     	;# 
    57  000D                     	;# 
    58  000E                     	;# 
    59  0010                     	;# 
    60  0011                     	;# 
    61  0012                     	;# 
    62  0013                     	;# 
    63  0014                     	;# 
    64  0015                     	;# 
    65  0016                     	;# 
    66  0016                     	;# 
    67  0017                     	;# 
    68  0018                     	;# 
    69  0019                     	;# 
    70  001A                     	;# 
    71  001A                     	;# 
    72  001B                     	;# 
    73  001B                     	;# 
    74  001C                     	;# 
    75  001D                     	;# 
    76  001E                     	;# 
    77  001F                     	;# 
    78  008C                     	;# 
    79  008D                     	;# 
    80  008E                     	;# 
    81  0090                     	;# 
    82  0091                     	;# 
    83  0092                     	;# 
    84  0093                     	;# 
    85  0094                     	;# 
    86  0095                     	;# 
    87  0096                     	;# 
    88  0098                     	;# 
    89  0099                     	;# 
    90  009A                     	;# 
    91  009B                     	;# 
    92  009B                     	;# 
    93  009C                     	;# 
    94  009D                     	;# 
    95  009E                     	;# 
    96  009F                     	;# 
    97  010C                     	;# 
    98  010D                     	;# 
    99  010E                     	;# 
   100  0111                     	;# 
   101  0112                     	;# 
   102  0113                     	;# 
   103  0114                     	;# 
   104  0115                     	;# 
   105  0116                     	;# 
   106  0117                     	;# 
   107  0118                     	;# 
   108  0119                     	;# 
   109  011C                     	;# 
   110  018C                     	;# 
   111  018D                     	;# 
   112  018E                     	;# 
   113  0191                     	;# 
   114  0191                     	;# 
   115  0192                     	;# 
   116  0193                     	;# 
   117  0193                     	;# 
   118  0194                     	;# 
   119  0195                     	;# 
   120  0196                     	;# 
   121  0197                     	;# 
   122  0199                     	;# 
   123  0199                     	;# 
   124  0199                     	;# 
   125  019A                     	;# 
   126  019A                     	;# 
   127  019A                     	;# 
   128  019B                     	;# 
   129  019B                     	;# 
   130  019B                     	;# 
   131  019B                     	;# 
   132  019B                     	;# 
   133  019C                     	;# 
   134  019C                     	;# 
   135  019C                     	;# 
   136  019D                     	;# 
   137  019D                     	;# 
   138  019D                     	;# 
   139  019E                     	;# 
   140  019E                     	;# 
   141  019E                     	;# 
   142  019F                     	;# 
   143  019F                     	;# 
   144  019F                     	;# 
   145  019F                     	;# 
   146  019F                     	;# 
   147  020C                     	;# 
   148  020D                     	;# 
   149  020E                     	;# 
   150  0211                     	;# 
   151  0211                     	;# 
   152  0212                     	;# 
   153  0212                     	;# 
   154  0213                     	;# 
   155  0213                     	;# 
   156  0214                     	;# 
   157  0214                     	;# 
   158  0215                     	;# 
   159  0215                     	;# 
   160  0215                     	;# 
   161  0215                     	;# 
   162  0216                     	;# 
   163  0216                     	;# 
   164  0217                     	;# 
   165  0217                     	;# 
   166  028C                     	;# 
   167  028D                     	;# 
   168  028E                     	;# 
   169  0291                     	;# 
   170  0291                     	;# 
   171  0292                     	;# 
   172  0293                     	;# 
   173  0294                     	;# 
   174  0298                     	;# 
   175  0298                     	;# 
   176  0299                     	;# 
   177  029A                     	;# 
   178  029B                     	;# 
   179  029E                     	;# 
   180  030C                     	;# 
   181  030D                     	;# 
   182  030E                     	;# 
   183  038C                     	;# 
   184  038D                     	;# 
   185  038E                     	;# 
   186  0391                     	;# 
   187  0392                     	;# 
   188  0393                     	;# 
   189  0394                     	;# 
   190  0395                     	;# 
   191  0396                     	;# 
   192  0397                     	;# 
   193  0398                     	;# 
   194  0399                     	;# 
   195  040E                     	;# 
   196  0413                     	;# 
   197  0413                     	;# 
   198  0414                     	;# 
   199  0414                     	;# 
   200  0415                     	;# 
   201  0416                     	;# 
   202  0417                     	;# 
   203  0418                     	;# 
   204  041A                     	;# 
   205  041A                     	;# 
   206  041B                     	;# 
   207  041B                     	;# 
   208  041C                     	;# 
   209  041D                     	;# 
   210  041E                     	;# 
   211  041F                     	;# 
   212  0493                     	;# 
   213  0494                     	;# 
   214  0495                     	;# 
   215  0496                     	;# 
   216  049A                     	;# 
   217  049B                     	;# 
   218  049C                     	;# 
   219  049D                     	;# 
   220  058C                     	;# 
   221  058C                     	;# 
   222  058D                     	;# 
   223  058E                     	;# 
   224  058E                     	;# 
   225  058F                     	;# 
   226  0590                     	;# 
   227  0590                     	;# 
   228  0591                     	;# 
   229  0592                     	;# 
   230  0592                     	;# 
   231  0593                     	;# 
   232  0594                     	;# 
   233  0594                     	;# 
   234  0595                     	;# 
   235  0596                     	;# 
   236  0596                     	;# 
   237  0597                     	;# 
   238  0598                     	;# 
   239  0599                     	;# 
   240  059A                     	;# 
   241  059B                     	;# 
   242  059B                     	;# 
   243  059C                     	;# 
   244  059D                     	;# 
   245  060C                     	;# 
   246  060C                     	;# 
   247  060D                     	;# 
   248  060E                     	;# 
   249  060F                     	;# 
   250  060F                     	;# 
   251  0610                     	;# 
   252  0611                     	;# 
   253  0612                     	;# 
   254  0613                     	;# 
   255  0614                     	;# 
   256  0617                     	;# 
   257  0618                     	;# 
   258  0619                     	;# 
   259  061A                     	;# 
   260  061B                     	;# 
   261  061C                     	;# 
   262  0691                     	;# 
   263  0692                     	;# 
   264  0693                     	;# 
   265  0694                     	;# 
   266  0695                     	;# 
   267  0696                     	;# 
   268  0697                     	;# 
   269  0699                     	;# 
   270  069A                     	;# 
   271  0711                     	;# 
   272  0712                     	;# 
   273  0713                     	;# 
   274  0714                     	;# 
   275  0715                     	;# 
   276  0718                     	;# 
   277  0718                     	;# 
   278  0719                     	;# 
   279  071A                     	;# 
   280  071A                     	;# 
   281  071B                     	;# 
   282  071C                     	;# 
   283  071D                     	;# 
   284  0791                     	;# 
   285  0791                     	;# 
   286  0792                     	;# 
   287  0793                     	;# 
   288  0793                     	;# 
   289  0794                     	;# 
   290  0795                     	;# 
   291  0795                     	;# 
   292  0796                     	;# 
   293  0797                     	;# 
   294  0797                     	;# 
   295  0798                     	;# 
   296  0799                     	;# 
   297  079A                     	;# 
   298  080C                     	;# 
   299  080C                     	;# 
   300  080D                     	;# 
   301  080E                     	;# 
   302  080E                     	;# 
   303  080F                     	;# 
   304  0810                     	;# 
   305  0810                     	;# 
   306  0811                     	;# 
   307  0812                     	;# 
   308  0812                     	;# 
   309  0813                     	;# 
   310  0814                     	;# 
   311  0815                     	;# 
   312  0816                     	;# 
   313  0817                     	;# 
   314  0818                     	;# 
   315  0819                     	;# 
   316  081A                     	;# 
   317  081A                     	;# 
   318  081B                     	;# 
   319  081C                     	;# 
   320  081C                     	;# 
   321  081D                     	;# 
   322  088C                     	;# 
   323  088D                     	;# 
   324  088E                     	;# 
   325  088F                     	;# 
   326  088F                     	;# 
   327  0890                     	;# 
   328  0891                     	;# 
   329  0892                     	;# 
   330  0893                     	;# 
   331  0893                     	;# 
   332  0894                     	;# 
   333  0895                     	;# 
   334  0896                     	;# 
   335  0897                     	;# 
   336  0897                     	;# 
   337  0898                     	;# 
   338  0899                     	;# 
   339  0D8C                     	;# 
   340  0D8C                     	;# 
   341  0D8D                     	;# 
   342  0D8E                     	;# 
   343  0D8F                     	;# 
   344  0D8F                     	;# 
   345  0D90                     	;# 
   346  0D91                     	;# 
   347  0D92                     	;# 
   348  0D92                     	;# 
   349  0D93                     	;# 
   350  0D94                     	;# 
   351  0D95                     	;# 
   352  0D95                     	;# 
   353  0D96                     	;# 
   354  0D97                     	;# 
   355  0D98                     	;# 
   356  0D99                     	;# 
   357  0D9A                     	;# 
   358  0D9B                     	;# 
   359  0D9C                     	;# 
   360  0D9D                     	;# 
   361  0D9E                     	;# 
   362  0D9E                     	;# 
   363  0D9F                     	;# 
   364  0DA0                     	;# 
   365  0DA1                     	;# 
   366  0DA1                     	;# 
   367  0DA2                     	;# 
   368  0DA3                     	;# 
   369  0DA4                     	;# 
   370  0DA4                     	;# 
   371  0DA5                     	;# 
   372  0DA6                     	;# 
   373  0DA7                     	;# 
   374  0DA7                     	;# 
   375  0DA8                     	;# 
   376  0DA9                     	;# 
   377  0DAA                     	;# 
   378  0DAB                     	;# 
   379  0DAC                     	;# 
   380  0DAD                     	;# 
   381  0DAE                     	;# 
   382  0DAF                     	;# 
   383  0E0F                     	;# 
   384  0E10                     	;# 
   385  0E11                     	;# 
   386  0E12                     	;# 
   387  0E13                     	;# 
   388  0E14                     	;# 
   389  0E15                     	;# 
   390  0E16                     	;# 
   391  0E17                     	;# 
   392  0E18                     	;# 
   393  0E19                     	;# 
   394  0E1A                     	;# 
   395  0E1B                     	;# 
   396  0E1C                     	;# 
   397  0E1D                     	;# 
   398  0E1E                     	;# 
   399  0E1F                     	;# 
   400  0E20                     	;# 
   401  0E21                     	;# 
   402  0E22                     	;# 
   403  0E23                     	;# 
   404  0E24                     	;# 
   405  0E25                     	;# 
   406  0E26                     	;# 
   407  0E27                     	;# 
   408  0E28                     	;# 
   409  0E29                     	;# 
   410  0E2A                     	;# 
   411  0E2B                     	;# 
   412  0E2C                     	;# 
   413  0E2D                     	;# 
   414  0E2E                     	;# 
   415  0E90                     	;# 
   416  0E91                     	;# 
   417  0E92                     	;# 
   418  0E94                     	;# 
   419  0E95                     	;# 
   420  0E9C                     	;# 
   421  0E9D                     	;# 
   422  0E9E                     	;# 
   423  0E9F                     	;# 
   424  0EA0                     	;# 
   425  0EA1                     	;# 
   426  0EA2                     	;# 
   427  0EA3                     	;# 
   428  0EA4                     	;# 
   429  0EA5                     	;# 
   430  0EA6                     	;# 
   431  0EA7                     	;# 
   432  0F0F                     	;# 
   433  0F10                     	;# 
   434  0F11                     	;# 
   435  0F12                     	;# 
   436  0F13                     	;# 
   437  0F14                     	;# 
   438  0F15                     	;# 
   439  0F16                     	;# 
   440  0F17                     	;# 
   441  0F18                     	;# 
   442  0F19                     	;# 
   443  0F1A                     	;# 
   444  0F1B                     	;# 
   445  0F1C                     	;# 
   446  0F1D                     	;# 
   447  0F1E                     	;# 
   448  0F1F                     	;# 
   449  0F20                     	;# 
   450  0F21                     	;# 
   451  0F22                     	;# 
   452  0F23                     	;# 
   453  0F24                     	;# 
   454  0F25                     	;# 
   455  0F26                     	;# 
   456  0F27                     	;# 
   457  0F28                     	;# 
   458  0F29                     	;# 
   459  0F2A                     	;# 
   460  0F2B                     	;# 
   461  0F2C                     	;# 
   462  0F2D                     	;# 
   463  0F2E                     	;# 
   464  0F2F                     	;# 
   465  0F30                     	;# 
   466  0F31                     	;# 
   467  0F32                     	;# 
   468  0F33                     	;# 
   469  0F34                     	;# 
   470  0F35                     	;# 
   471  0F36                     	;# 
   472  0F37                     	;# 
   473  0FE4                     	;# 
   474  0FE5                     	;# 
   475  0FE6                     	;# 
   476  0FE7                     	;# 
   477  0FE8                     	;# 
   478  0FE9                     	;# 
   479  0FEA                     	;# 
   480  0FEB                     	;# 
   481  0FED                     	;# 
   482  0FEE                     	;# 
   483  0FEF                     	;# 
   484  0000                     	;# 
   485  0001                     	;# 
   486  0002                     	;# 
   487  0003                     	;# 
   488  0004                     	;# 
   489  0005                     	;# 
   490  0006                     	;# 
   491  0007                     	;# 
   492  0008                     	;# 
   493  0009                     	;# 
   494  000A                     	;# 
   495  000B                     	;# 
   496  000C                     	;# 
   497  000D                     	;# 
   498  000E                     	;# 
   499  0010                     	;# 
   500  0011                     	;# 
   501  0012                     	;# 
   502  0013                     	;# 
   503  0014                     	;# 
   504  0015                     	;# 
   505  0016                     	;# 
   506  0016                     	;# 
   507  0017                     	;# 
   508  0018                     	;# 
   509  0019                     	;# 
   510  001A                     	;# 
   511  001A                     	;# 
   512  001B                     	;# 
   513  001B                     	;# 
   514  001C                     	;# 
   515  001D                     	;# 
   516  001E                     	;# 
   517  001F                     	;# 
   518  008C                     	;# 
   519  008D                     	;# 
   520  008E                     	;# 
   521  0090                     	;# 
   522  0091                     	;# 
   523  0092                     	;# 
   524  0093                     	;# 
   525  0094                     	;# 
   526  0095                     	;# 
   527  0096                     	;# 
   528  0098                     	;# 
   529  0099                     	;# 
   530  009A                     	;# 
   531  009B                     	;# 
   532  009B                     	;# 
   533  009C                     	;# 
   534  009D                     	;# 
   535  009E                     	;# 
   536  009F                     	;# 
   537  010C                     	;# 
   538  010D                     	;# 
   539  010E                     	;# 
   540  0111                     	;# 
   541  0112                     	;# 
   542  0113                     	;# 
   543  0114                     	;# 
   544  0115                     	;# 
   545  0116                     	;# 
   546  0117                     	;# 
   547  0118                     	;# 
   548  0119                     	;# 
   549  011C                     	;# 
   550  018C                     	;# 
   551  018D                     	;# 
   552  018E                     	;# 
   553  0191                     	;# 
   554  0191                     	;# 
   555  0192                     	;# 
   556  0193                     	;# 
   557  0193                     	;# 
   558  0194                     	;# 
   559  0195                     	;# 
   560  0196                     	;# 
   561  0197                     	;# 
   562  0199                     	;# 
   563  0199                     	;# 
   564  0199                     	;# 
   565  019A                     	;# 
   566  019A                     	;# 
   567  019A                     	;# 
   568  019B                     	;# 
   569  019B                     	;# 
   570  019B                     	;# 
   571  019B                     	;# 
   572  019B                     	;# 
   573  019C                     	;# 
   574  019C                     	;# 
   575  019C                     	;# 
   576  019D                     	;# 
   577  019D                     	;# 
   578  019D                     	;# 
   579  019E                     	;# 
   580  019E                     	;# 
   581  019E                     	;# 
   582  019F                     	;# 
   583  019F                     	;# 
   584  019F                     	;# 
   585  019F                     	;# 
   586  019F                     	;# 
   587  020C                     	;# 
   588  020D                     	;# 
   589  020E                     	;# 
   590  0211                     	;# 
   591  0211                     	;# 
   592  0212                     	;# 
   593  0212                     	;# 
   594  0213                     	;# 
   595  0213                     	;# 
   596  0214                     	;# 
   597  0214                     	;# 
   598  0215                     	;# 
   599  0215                     	;# 
   600  0215                     	;# 
   601  0215                     	;# 
   602  0216                     	;# 
   603  0216                     	;# 
   604  0217                     	;# 
   605  0217                     	;# 
   606  028C                     	;# 
   607  028D                     	;# 
   608  028E                     	;# 
   609  0291                     	;# 
   610  0291                     	;# 
   611  0292                     	;# 
   612  0293                     	;# 
   613  0294                     	;# 
   614  0298                     	;# 
   615  0298                     	;# 
   616  0299                     	;# 
   617  029A                     	;# 
   618  029B                     	;# 
   619  029E                     	;# 
   620  030C                     	;# 
   621  030D                     	;# 
   622  030E                     	;# 
   623  038C                     	;# 
   624  038D                     	;# 
   625  038E                     	;# 
   626  0391                     	;# 
   627  0392                     	;# 
   628  0393                     	;# 
   629  0394                     	;# 
   630  0395                     	;# 
   631  0396                     	;# 
   632  0397                     	;# 
   633  0398                     	;# 
   634  0399                     	;# 
   635  040E                     	;# 
   636  0413                     	;# 
   637  0413                     	;# 
   638  0414                     	;# 
   639  0414                     	;# 
   640  0415                     	;# 
   641  0416                     	;# 
   642  0417                     	;# 
   643  0418                     	;# 
   644  041A                     	;# 
   645  041A                     	;# 
   646  041B                     	;# 
   647  041B                     	;# 
   648  041C                     	;# 
   649  041D                     	;# 
   650  041E                     	;# 
   651  041F                     	;# 
   652  0493                     	;# 
   653  0494                     	;# 
   654  0495                     	;# 
   655  0496                     	;# 
   656  049A                     	;# 
   657  049B                     	;# 
   658  049C                     	;# 
   659  049D                     	;# 
   660  058C                     	;# 
   661  058C                     	;# 
   662  058D                     	;# 
   663  058E                     	;# 
   664  058E                     	;# 
   665  058F                     	;# 
   666  0590                     	;# 
   667  0590                     	;# 
   668  0591                     	;# 
   669  0592                     	;# 
   670  0592                     	;# 
   671  0593                     	;# 
   672  0594                     	;# 
   673  0594                     	;# 
   674  0595                     	;# 
   675  0596                     	;# 
   676  0596                     	;# 
   677  0597                     	;# 
   678  0598                     	;# 
   679  0599                     	;# 
   680  059A                     	;# 
   681  059B                     	;# 
   682  059B                     	;# 
   683  059C                     	;# 
   684  059D                     	;# 
   685  060C                     	;# 
   686  060C                     	;# 
   687  060D                     	;# 
   688  060E                     	;# 
   689  060F                     	;# 
   690  060F                     	;# 
   691  0610                     	;# 
   692  0611                     	;# 
   693  0612                     	;# 
   694  0613                     	;# 
   695  0614                     	;# 
   696  0617                     	;# 
   697  0618                     	;# 
   698  0619                     	;# 
   699  061A                     	;# 
   700  061B                     	;# 
   701  061C                     	;# 
   702  0691                     	;# 
   703  0692                     	;# 
   704  0693                     	;# 
   705  0694                     	;# 
   706  0695                     	;# 
   707  0696                     	;# 
   708  0697                     	;# 
   709  0699                     	;# 
   710  069A                     	;# 
   711  0711                     	;# 
   712  0712                     	;# 
   713  0713                     	;# 
   714  0714                     	;# 
   715  0715                     	;# 
   716  0718                     	;# 
   717  0718                     	;# 
   718  0719                     	;# 
   719  071A                     	;# 
   720  071A                     	;# 
   721  071B                     	;# 
   722  071C                     	;# 
   723  071D                     	;# 
   724  0791                     	;# 
   725  0791                     	;# 
   726  0792                     	;# 
   727  0793                     	;# 
   728  0793                     	;# 
   729  0794                     	;# 
   730  0795                     	;# 
   731  0795                     	;# 
   732  0796                     	;# 
   733  0797                     	;# 
   734  0797                     	;# 
   735  0798                     	;# 
   736  0799                     	;# 
   737  079A                     	;# 
   738  080C                     	;# 
   739  080C                     	;# 
   740  080D                     	;# 
   741  080E                     	;# 
   742  080E                     	;# 
   743  080F                     	;# 
   744  0810                     	;# 
   745  0810                     	;# 
   746  0811                     	;# 
   747  0812                     	;# 
   748  0812                     	;# 
   749  0813                     	;# 
   750  0814                     	;# 
   751  0815                     	;# 
   752  0816                     	;# 
   753  0817                     	;# 
   754  0818                     	;# 
   755  0819                     	;# 
   756  081A                     	;# 
   757  081A                     	;# 
   758  081B                     	;# 
   759  081C                     	;# 
   760  081C                     	;# 
   761  081D                     	;# 
   762  088C                     	;# 
   763  088D                     	;# 
   764  088E                     	;# 
   765  088F                     	;# 
   766  088F                     	;# 
   767  0890                     	;# 
   768  0891                     	;# 
   769  0892                     	;# 
   770  0893                     	;# 
   771  0893                     	;# 
   772  0894                     	;# 
   773  0895                     	;# 
   774  0896                     	;# 
   775  0897                     	;# 
   776  0897                     	;# 
   777  0898                     	;# 
   778  0899                     	;# 
   779  0D8C                     	;# 
   780  0D8C                     	;# 
   781  0D8D                     	;# 
   782  0D8E                     	;# 
   783  0D8F                     	;# 
   784  0D8F                     	;# 
   785  0D90                     	;# 
   786  0D91                     	;# 
   787  0D92                     	;# 
   788  0D92                     	;# 
   789  0D93                     	;# 
   790  0D94                     	;# 
   791  0D95                     	;# 
   792  0D95                     	;# 
   793  0D96                     	;# 
   794  0D97                     	;# 
   795  0D98                     	;# 
   796  0D99                     	;# 
   797  0D9A                     	;# 
   798  0D9B                     	;# 
   799  0D9C                     	;# 
   800  0D9D                     	;# 
   801  0D9E                     	;# 
   802  0D9E                     	;# 
   803  0D9F                     	;# 
   804  0DA0                     	;# 
   805  0DA1                     	;# 
   806  0DA1                     	;# 
   807  0DA2                     	;# 
   808  0DA3                     	;# 
   809  0DA4                     	;# 
   810  0DA4                     	;# 
   811  0DA5                     	;# 
   812  0DA6                     	;# 
   813  0DA7                     	;# 
   814  0DA7                     	;# 
   815  0DA8                     	;# 
   816  0DA9                     	;# 
   817  0DAA                     	;# 
   818  0DAB                     	;# 
   819  0DAC                     	;# 
   820  0DAD                     	;# 
   821  0DAE                     	;# 
   822  0DAF                     	;# 
   823  0E0F                     	;# 
   824  0E10                     	;# 
   825  0E11                     	;# 
   826  0E12                     	;# 
   827  0E13                     	;# 
   828  0E14                     	;# 
   829  0E15                     	;# 
   830  0E16                     	;# 
   831  0E17                     	;# 
   832  0E18                     	;# 
   833  0E19                     	;# 
   834  0E1A                     	;# 
   835  0E1B                     	;# 
   836  0E1C                     	;# 
   837  0E1D                     	;# 
   838  0E1E                     	;# 
   839  0E1F                     	;# 
   840  0E20                     	;# 
   841  0E21                     	;# 
   842  0E22                     	;# 
   843  0E23                     	;# 
   844  0E24                     	;# 
   845  0E25                     	;# 
   846  0E26                     	;# 
   847  0E27                     	;# 
   848  0E28                     	;# 
   849  0E29                     	;# 
   850  0E2A                     	;# 
   851  0E2B                     	;# 
   852  0E2C                     	;# 
   853  0E2D                     	;# 
   854  0E2E                     	;# 
   855  0E90                     	;# 
   856  0E91                     	;# 
   857  0E92                     	;# 
   858  0E94                     	;# 
   859  0E95                     	;# 
   860  0E9C                     	;# 
   861  0E9D                     	;# 
   862  0E9E                     	;# 
   863  0E9F                     	;# 
   864  0EA0                     	;# 
   865  0EA1                     	;# 
   866  0EA2                     	;# 
   867  0EA3                     	;# 
   868  0EA4                     	;# 
   869  0EA5                     	;# 
   870  0EA6                     	;# 
   871  0EA7                     	;# 
   872  0F0F                     	;# 
   873  0F10                     	;# 
   874  0F11                     	;# 
   875  0F12                     	;# 
   876  0F13                     	;# 
   877  0F14                     	;# 
   878  0F15                     	;# 
   879  0F16                     	;# 
   880  0F17                     	;# 
   881  0F18                     	;# 
   882  0F19                     	;# 
   883  0F1A                     	;# 
   884  0F1B                     	;# 
   885  0F1C                     	;# 
   886  0F1D                     	;# 
   887  0F1E                     	;# 
   888  0F1F                     	;# 
   889  0F20                     	;# 
   890  0F21                     	;# 
   891  0F22                     	;# 
   892  0F23                     	;# 
   893  0F24                     	;# 
   894  0F25                     	;# 
   895  0F26                     	;# 
   896  0F27                     	;# 
   897  0F28                     	;# 
   898  0F29                     	;# 
   899  0F2A                     	;# 
   900  0F2B                     	;# 
   901  0F2C                     	;# 
   902  0F2D                     	;# 
   903  0F2E                     	;# 
   904  0F2F                     	;# 
   905  0F30                     	;# 
   906  0F31                     	;# 
   907  0F32                     	;# 
   908  0F33                     	;# 
   909  0F34                     	;# 
   910  0F35                     	;# 
   911  0F36                     	;# 
   912  0F37                     	;# 
   913  0FE4                     	;# 
   914  0FE5                     	;# 
   915  0FE6                     	;# 
   916  0FE7                     	;# 
   917  0FE8                     	;# 
   918  0FE9                     	;# 
   919  0FEA                     	;# 
   920  0FEB                     	;# 
   921  0FED                     	;# 
   922  0FEE                     	;# 
   923  0FEF                     	;# 
   924  0000                     	;# 
   925  0001                     	;# 
   926  0002                     	;# 
   927  0003                     	;# 
   928  0004                     	;# 
   929  0005                     	;# 
   930  0006                     	;# 
   931  0007                     	;# 
   932  0008                     	;# 
   933  0009                     	;# 
   934  000A                     	;# 
   935  000B                     	;# 
   936  000C                     	;# 
   937  000D                     	;# 
   938  000E                     	;# 
   939  0010                     	;# 
   940  0011                     	;# 
   941  0012                     	;# 
   942  0013                     	;# 
   943  0014                     	;# 
   944  0015                     	;# 
   945  0016                     	;# 
   946  0016                     	;# 
   947  0017                     	;# 
   948  0018                     	;# 
   949  0019                     	;# 
   950  001A                     	;# 
   951  001A                     	;# 
   952  001B                     	;# 
   953  001B                     	;# 
   954  001C                     	;# 
   955  001D                     	;# 
   956  001E                     	;# 
   957  001F                     	;# 
   958  008C                     	;# 
   959  008D                     	;# 
   960  008E                     	;# 
   961  0090                     	;# 
   962  0091                     	;# 
   963  0092                     	;# 
   964  0093                     	;# 
   965  0094                     	;# 
   966  0095                     	;# 
   967  0096                     	;# 
   968  0098                     	;# 
   969  0099                     	;# 
   970  009A                     	;# 
   971  009B                     	;# 
   972  009B                     	;# 
   973  009C                     	;# 
   974  009D                     	;# 
   975  009E                     	;# 
   976  009F                     	;# 
   977  010C                     	;# 
   978  010D                     	;# 
   979  010E                     	;# 
   980  0111                     	;# 
   981  0112                     	;# 
   982  0113                     	;# 
   983  0114                     	;# 
   984  0115                     	;# 
   985  0116                     	;# 
   986  0117                     	;# 
   987  0118                     	;# 
   988  0119                     	;# 
   989  011C                     	;# 
   990  018C                     	;# 
   991  018D                     	;# 
   992  018E                     	;# 
   993  0191                     	;# 
   994  0191                     	;# 
   995  0192                     	;# 
   996  0193                     	;# 
   997  0193                     	;# 
   998  0194                     	;# 
   999  0195                     	;# 
  1000  0196                     	;# 
  1001  0197                     	;# 
  1002  0199                     	;# 
  1003  0199                     	;# 
  1004  0199                     	;# 
  1005  019A                     	;# 
  1006  019A                     	;# 
  1007  019A                     	;# 
  1008  019B                     	;# 
  1009  019B                     	;# 
  1010  019B                     	;# 
  1011  019B                     	;# 
  1012  019B                     	;# 
  1013  019C                     	;# 
  1014  019C                     	;# 
  1015  019C                     	;# 
  1016  019D                     	;# 
  1017  019D                     	;# 
  1018  019D                     	;# 
  1019  019E                     	;# 
  1020  019E                     	;# 
  1021  019E                     	;# 
  1022  019F                     	;# 
  1023  019F                     	;# 
  1024  019F                     	;# 
  1025  019F                     	;# 
  1026  019F                     	;# 
  1027  020C                     	;# 
  1028  020D                     	;# 
  1029  020E                     	;# 
  1030  0211                     	;# 
  1031  0211                     	;# 
  1032  0212                     	;# 
  1033  0212                     	;# 
  1034  0213                     	;# 
  1035  0213                     	;# 
  1036  0214                     	;# 
  1037  0214                     	;# 
  1038  0215                     	;# 
  1039  0215                     	;# 
  1040  0215                     	;# 
  1041  0215                     	;# 
  1042  0216                     	;# 
  1043  0216                     	;# 
  1044  0217                     	;# 
  1045  0217                     	;# 
  1046  028C                     	;# 
  1047  028D                     	;# 
  1048  028E                     	;# 
  1049  0291                     	;# 
  1050  0291                     	;# 
  1051  0292                     	;# 
  1052  0293                     	;# 
  1053  0294                     	;# 
  1054  0298                     	;# 
  1055  0298                     	;# 
  1056  0299                     	;# 
  1057  029A                     	;# 
  1058  029B                     	;# 
  1059  029E                     	;# 
  1060  030C                     	;# 
  1061  030D                     	;# 
  1062  030E                     	;# 
  1063  038C                     	;# 
  1064  038D                     	;# 
  1065  038E                     	;# 
  1066  0391                     	;# 
  1067  0392                     	;# 
  1068  0393                     	;# 
  1069  0394                     	;# 
  1070  0395                     	;# 
  1071  0396                     	;# 
  1072  0397                     	;# 
  1073  0398                     	;# 
  1074  0399                     	;# 
  1075  040E                     	;# 
  1076  0413                     	;# 
  1077  0413                     	;# 
  1078  0414                     	;# 
  1079  0414                     	;# 
  1080  0415                     	;# 
  1081  0416                     	;# 
  1082  0417                     	;# 
  1083  0418                     	;# 
  1084  041A                     	;# 
  1085  041A                     	;# 
  1086  041B                     	;# 
  1087  041B                     	;# 
  1088  041C                     	;# 
  1089  041D                     	;# 
  1090  041E                     	;# 
  1091  041F                     	;# 
  1092  0493                     	;# 
  1093  0494                     	;# 
  1094  0495                     	;# 
  1095  0496                     	;# 
  1096  049A                     	;# 
  1097  049B                     	;# 
  1098  049C                     	;# 
  1099  049D                     	;# 
  1100  058C                     	;# 
  1101  058C                     	;# 
  1102  058D                     	;# 
  1103  058E                     	;# 
  1104  058E                     	;# 
  1105  058F                     	;# 
  1106  0590                     	;# 
  1107  0590                     	;# 
  1108  0591                     	;# 
  1109  0592                     	;# 
  1110  0592                     	;# 
  1111  0593                     	;# 
  1112  0594                     	;# 
  1113  0594                     	;# 
  1114  0595                     	;# 
  1115  0596                     	;# 
  1116  0596                     	;# 
  1117  0597                     	;# 
  1118  0598                     	;# 
  1119  0599                     	;# 
  1120  059A                     	;# 
  1121  059B                     	;# 
  1122  059B                     	;# 
  1123  059C                     	;# 
  1124  059D                     	;# 
  1125  060C                     	;# 
  1126  060C                     	;# 
  1127  060D                     	;# 
  1128  060E                     	;# 
  1129  060F                     	;# 
  1130  060F                     	;# 
  1131  0610                     	;# 
  1132  0611                     	;# 
  1133  0612                     	;# 
  1134  0613                     	;# 
  1135  0614                     	;# 
  1136  0617                     	;# 
  1137  0618                     	;# 
  1138  0619                     	;# 
  1139  061A                     	;# 
  1140  061B                     	;# 
  1141  061C                     	;# 
  1142  0691                     	;# 
  1143  0692                     	;# 
  1144  0693                     	;# 
  1145  0694                     	;# 
  1146  0695                     	;# 
  1147  0696                     	;# 
  1148  0697                     	;# 
  1149  0699                     	;# 
  1150  069A                     	;# 
  1151  0711                     	;# 
  1152  0712                     	;# 
  1153  0713                     	;# 
  1154  0714                     	;# 
  1155  0715                     	;# 
  1156  0718                     	;# 
  1157  0718                     	;# 
  1158  0719                     	;# 
  1159  071A                     	;# 
  1160  071A                     	;# 
  1161  071B                     	;# 
  1162  071C                     	;# 
  1163  071D                     	;# 
  1164  0791                     	;# 
  1165  0791                     	;# 
  1166  0792                     	;# 
  1167  0793                     	;# 
  1168  0793                     	;# 
  1169  0794                     	;# 
  1170  0795                     	;# 
  1171  0795                     	;# 
  1172  0796                     	;# 
  1173  0797                     	;# 
  1174  0797                     	;# 
  1175  0798                     	;# 
  1176  0799                     	;# 
  1177  079A                     	;# 
  1178  080C                     	;# 
  1179  080C                     	;# 
  1180  080D                     	;# 
  1181  080E                     	;# 
  1182  080E                     	;# 
  1183  080F                     	;# 
  1184  0810                     	;# 
  1185  0810                     	;# 
  1186  0811                     	;# 
  1187  0812                     	;# 
  1188  0812                     	;# 
  1189  0813                     	;# 
  1190  0814                     	;# 
  1191  0815                     	;# 
  1192  0816                     	;# 
  1193  0817                     	;# 
  1194  0818                     	;# 
  1195  0819                     	;# 
  1196  081A                     	;# 
  1197  081A                     	;# 
  1198  081B                     	;# 
  1199  081C                     	;# 
  1200  081C                     	;# 
  1201  081D                     	;# 
  1202  088C                     	;# 
  1203  088D                     	;# 
  1204  088E                     	;# 
  1205  088F                     	;# 
  1206  088F                     	;# 
  1207  0890                     	;# 
  1208  0891                     	;# 
  1209  0892                     	;# 
  1210  0893                     	;# 
  1211  0893                     	;# 
  1212  0894                     	;# 
  1213  0895                     	;# 
  1214  0896                     	;# 
  1215  0897                     	;# 
  1216  0897                     	;# 
  1217  0898                     	;# 
  1218  0899                     	;# 
  1219  0D8C                     	;# 
  1220  0D8C                     	;# 
  1221  0D8D                     	;# 
  1222  0D8E                     	;# 
  1223  0D8F                     	;# 
  1224  0D8F                     	;# 
  1225  0D90                     	;# 
  1226  0D91                     	;# 
  1227  0D92                     	;# 
  1228  0D92                     	;# 
  1229  0D93                     	;# 
  1230  0D94                     	;# 
  1231  0D95                     	;# 
  1232  0D95                     	;# 
  1233  0D96                     	;# 
  1234  0D97                     	;# 
  1235  0D98                     	;# 
  1236  0D99                     	;# 
  1237  0D9A                     	;# 
  1238  0D9B                     	;# 
  1239  0D9C                     	;# 
  1240  0D9D                     	;# 
  1241  0D9E                     	;# 
  1242  0D9E                     	;# 
  1243  0D9F                     	;# 
  1244  0DA0                     	;# 
  1245  0DA1                     	;# 
  1246  0DA1                     	;# 
  1247  0DA2                     	;# 
  1248  0DA3                     	;# 
  1249  0DA4                     	;# 
  1250  0DA4                     	;# 
  1251  0DA5                     	;# 
  1252  0DA6                     	;# 
  1253  0DA7                     	;# 
  1254  0DA7                     	;# 
  1255  0DA8                     	;# 
  1256  0DA9                     	;# 
  1257  0DAA                     	;# 
  1258  0DAB                     	;# 
  1259  0DAC                     	;# 
  1260  0DAD                     	;# 
  1261  0DAE                     	;# 
  1262  0DAF                     	;# 
  1263  0E0F                     	;# 
  1264  0E10                     	;# 
  1265  0E11                     	;# 
  1266  0E12                     	;# 
  1267  0E13                     	;# 
  1268  0E14                     	;# 
  1269  0E15                     	;# 
  1270  0E16                     	;# 
  1271  0E17                     	;# 
  1272  0E18                     	;# 
  1273  0E19                     	;# 
  1274  0E1A                     	;# 
  1275  0E1B                     	;# 
  1276  0E1C                     	;# 
  1277  0E1D                     	;# 
  1278  0E1E                     	;# 
  1279  0E1F                     	;# 
  1280  0E20                     	;# 
  1281  0E21                     	;# 
  1282  0E22                     	;# 
  1283  0E23                     	;# 
  1284  0E24                     	;# 
  1285  0E25                     	;# 
  1286  0E26                     	;# 
  1287  0E27                     	;# 
  1288  0E28                     	;# 
  1289  0E29                     	;# 
  1290  0E2A                     	;# 
  1291  0E2B                     	;# 
  1292  0E2C                     	;# 
  1293  0E2D                     	;# 
  1294  0E2E                     	;# 
  1295  0E90                     	;# 
  1296  0E91                     	;# 
  1297  0E92                     	;# 
  1298  0E94                     	;# 
  1299  0E95                     	;# 
  1300  0E9C                     	;# 
  1301  0E9D                     	;# 
  1302  0E9E                     	;# 
  1303  0E9F                     	;# 
  1304  0EA0                     	;# 
  1305  0EA1                     	;# 
  1306  0EA2                     	;# 
  1307  0EA3                     	;# 
  1308  0EA4                     	;# 
  1309  0EA5                     	;# 
  1310  0EA6                     	;# 
  1311  0EA7                     	;# 
  1312  0F0F                     	;# 
  1313  0F10                     	;# 
  1314  0F11                     	;# 
  1315  0F12                     	;# 
  1316  0F13                     	;# 
  1317  0F14                     	;# 
  1318  0F15                     	;# 
  1319  0F16                     	;# 
  1320  0F17                     	;# 
  1321  0F18                     	;# 
  1322  0F19                     	;# 
  1323  0F1A                     	;# 
  1324  0F1B                     	;# 
  1325  0F1C                     	;# 
  1326  0F1D                     	;# 
  1327  0F1E                     	;# 
  1328  0F1F                     	;# 
  1329  0F20                     	;# 
  1330  0F21                     	;# 
  1331  0F22                     	;# 
  1332  0F23                     	;# 
  1333  0F24                     	;# 
  1334  0F25                     	;# 
  1335  0F26                     	;# 
  1336  0F27                     	;# 
  1337  0F28                     	;# 
  1338  0F29                     	;# 
  1339  0F2A                     	;# 
  1340  0F2B                     	;# 
  1341  0F2C                     	;# 
  1342  0F2D                     	;# 
  1343  0F2E                     	;# 
  1344  0F2F                     	;# 
  1345  0F30                     	;# 
  1346  0F31                     	;# 
  1347  0F32                     	;# 
  1348  0F33                     	;# 
  1349  0F34                     	;# 
  1350  0F35                     	;# 
  1351  0F36                     	;# 
  1352  0F37                     	;# 
  1353  0FE4                     	;# 
  1354  0FE5                     	;# 
  1355  0FE6                     	;# 
  1356  0FE7                     	;# 
  1357  0FE8                     	;# 
  1358  0FE9                     	;# 
  1359  0FEA                     	;# 
  1360  0FEB                     	;# 
  1361  0FED                     	;# 
  1362  0FEE                     	;# 
  1363  0FEF                     	;# 
  1364  0000                     	;# 
  1365  0001                     	;# 
  1366  0002                     	;# 
  1367  0003                     	;# 
  1368  0004                     	;# 
  1369  0005                     	;# 
  1370  0006                     	;# 
  1371  0007                     	;# 
  1372  0008                     	;# 
  1373  0009                     	;# 
  1374  000A                     	;# 
  1375  000B                     	;# 
  1376  000C                     	;# 
  1377  000D                     	;# 
  1378  000E                     	;# 
  1379  0010                     	;# 
  1380  0011                     	;# 
  1381  0012                     	;# 
  1382  0013                     	;# 
  1383  0014                     	;# 
  1384  0015                     	;# 
  1385  0016                     	;# 
  1386  0016                     	;# 
  1387  0017                     	;# 
  1388  0018                     	;# 
  1389  0019                     	;# 
  1390  001A                     	;# 
  1391  001A                     	;# 
  1392  001B                     	;# 
  1393  001B                     	;# 
  1394  001C                     	;# 
  1395  001D                     	;# 
  1396  001E                     	;# 
  1397  001F                     	;# 
  1398  008C                     	;# 
  1399  008D                     	;# 
  1400  008E                     	;# 
  1401  0090                     	;# 
  1402  0091                     	;# 
  1403  0092                     	;# 
  1404  0093                     	;# 
  1405  0094                     	;# 
  1406  0095                     	;# 
  1407  0096                     	;# 
  1408  0098                     	;# 
  1409  0099                     	;# 
  1410  009A                     	;# 
  1411  009B                     	;# 
  1412  009B                     	;# 
  1413  009C                     	;# 
  1414  009D                     	;# 
  1415  009E                     	;# 
  1416  009F                     	;# 
  1417  010C                     	;# 
  1418  010D                     	;# 
  1419  010E                     	;# 
  1420  0111                     	;# 
  1421  0112                     	;# 
  1422  0113                     	;# 
  1423  0114                     	;# 
  1424  0115                     	;# 
  1425  0116                     	;# 
  1426  0117                     	;# 
  1427  0118                     	;# 
  1428  0119                     	;# 
  1429  011C                     	;# 
  1430  018C                     	;# 
  1431  018D                     	;# 
  1432  018E                     	;# 
  1433  0191                     	;# 
  1434  0191                     	;# 
  1435  0192                     	;# 
  1436  0193                     	;# 
  1437  0193                     	;# 
  1438  0194                     	;# 
  1439  0195                     	;# 
  1440  0196                     	;# 
  1441  0197                     	;# 
  1442  0199                     	;# 
  1443  0199                     	;# 
  1444  0199                     	;# 
  1445  019A                     	;# 
  1446  019A                     	;# 
  1447  019A                     	;# 
  1448  019B                     	;# 
  1449  019B                     	;# 
  1450  019B                     	;# 
  1451  019B                     	;# 
  1452  019B                     	;# 
  1453  019C                     	;# 
  1454  019C                     	;# 
  1455  019C                     	;# 
  1456  019D                     	;# 
  1457  019D                     	;# 
  1458  019D                     	;# 
  1459  019E                     	;# 
  1460  019E                     	;# 
  1461  019E                     	;# 
  1462  019F                     	;# 
  1463  019F                     	;# 
  1464  019F                     	;# 
  1465  019F                     	;# 
  1466  019F                     	;# 
  1467  020C                     	;# 
  1468  020D                     	;# 
  1469  020E                     	;# 
  1470  0211                     	;# 
  1471  0211                     	;# 
  1472  0212                     	;# 
  1473  0212                     	;# 
  1474  0213                     	;# 
  1475  0213                     	;# 
  1476  0214                     	;# 
  1477  0214                     	;# 
  1478  0215                     	;# 
  1479  0215                     	;# 
  1480  0215                     	;# 
  1481  0215                     	;# 
  1482  0216                     	;# 
  1483  0216                     	;# 
  1484  0217                     	;# 
  1485  0217                     	;# 
  1486  028C                     	;# 
  1487  028D                     	;# 
  1488  028E                     	;# 
  1489  0291                     	;# 
  1490  0291                     	;# 
  1491  0292                     	;# 
  1492  0293                     	;# 
  1493  0294                     	;# 
  1494  0298                     	;# 
  1495  0298                     	;# 
  1496  0299                     	;# 
  1497  029A                     	;# 
  1498  029B                     	;# 
  1499  029E                     	;# 
  1500  030C                     	;# 
  1501  030D                     	;# 
  1502  030E                     	;# 
  1503  038C                     	;# 
  1504  038D                     	;# 
  1505  038E                     	;# 
  1506  0391                     	;# 
  1507  0392                     	;# 
  1508  0393                     	;# 
  1509  0394                     	;# 
  1510  0395                     	;# 
  1511  0396                     	;# 
  1512  0397                     	;# 
  1513  0398                     	;# 
  1514  0399                     	;# 
  1515  040E                     	;# 
  1516  0413                     	;# 
  1517  0413                     	;# 
  1518  0414                     	;# 
  1519  0414                     	;# 
  1520  0415                     	;# 
  1521  0416                     	;# 
  1522  0417                     	;# 
  1523  0418                     	;# 
  1524  041A                     	;# 
  1525  041A                     	;# 
  1526  041B                     	;# 
  1527  041B                     	;# 
  1528  041C                     	;# 
  1529  041D                     	;# 
  1530  041E                     	;# 
  1531  041F                     	;# 
  1532  0493                     	;# 
  1533  0494                     	;# 
  1534  0495                     	;# 
  1535  0496                     	;# 
  1536  049A                     	;# 
  1537  049B                     	;# 
  1538  049C                     	;# 
  1539  049D                     	;# 
  1540  058C                     	;# 
  1541  058C                     	;# 
  1542  058D                     	;# 
  1543  058E                     	;# 
  1544  058E                     	;# 
  1545  058F                     	;# 
  1546  0590                     	;# 
  1547  0590                     	;# 
  1548  0591                     	;# 
  1549  0592                     	;# 
  1550  0592                     	;# 
  1551  0593                     	;# 
  1552  0594                     	;# 
  1553  0594                     	;# 
  1554  0595                     	;# 
  1555  0596                     	;# 
  1556  0596                     	;# 
  1557  0597                     	;# 
  1558  0598                     	;# 
  1559  0599                     	;# 
  1560  059A                     	;# 
  1561  059B                     	;# 
  1562  059B                     	;# 
  1563  059C                     	;# 
  1564  059D                     	;# 
  1565  060C                     	;# 
  1566  060C                     	;# 
  1567  060D                     	;# 
  1568  060E                     	;# 
  1569  060F                     	;# 
  1570  060F                     	;# 
  1571  0610                     	;# 
  1572  0611                     	;# 
  1573  0612                     	;# 
  1574  0613                     	;# 
  1575  0614                     	;# 
  1576  0617                     	;# 
  1577  0618                     	;# 
  1578  0619                     	;# 
  1579  061A                     	;# 
  1580  061B                     	;# 
  1581  061C                     	;# 
  1582  0691                     	;# 
  1583  0692                     	;# 
  1584  0693                     	;# 
  1585  0694                     	;# 
  1586  0695                     	;# 
  1587  0696                     	;# 
  1588  0697                     	;# 
  1589  0699                     	;# 
  1590  069A                     	;# 
  1591  0711                     	;# 
  1592  0712                     	;# 
  1593  0713                     	;# 
  1594  0714                     	;# 
  1595  0715                     	;# 
  1596  0718                     	;# 
  1597  0718                     	;# 
  1598  0719                     	;# 
  1599  071A                     	;# 
  1600  071A                     	;# 
  1601  071B                     	;# 
  1602  071C                     	;# 
  1603  071D                     	;# 
  1604  0791                     	;# 
  1605  0791                     	;# 
  1606  0792                     	;# 
  1607  0793                     	;# 
  1608  0793                     	;# 
  1609  0794                     	;# 
  1610  0795                     	;# 
  1611  0795                     	;# 
  1612  0796                     	;# 
  1613  0797                     	;# 
  1614  0797                     	;# 
  1615  0798                     	;# 
  1616  0799                     	;# 
  1617  079A                     	;# 
  1618  080C                     	;# 
  1619  080C                     	;# 
  1620  080D                     	;# 
  1621  080E                     	;# 
  1622  080E                     	;# 
  1623  080F                     	;# 
  1624  0810                     	;# 
  1625  0810                     	;# 
  1626  0811                     	;# 
  1627  0812                     	;# 
  1628  0812                     	;# 
  1629  0813                     	;# 
  1630  0814                     	;# 
  1631  0815                     	;# 
  1632  0816                     	;# 
  1633  0817                     	;# 
  1634  0818                     	;# 
  1635  0819                     	;# 
  1636  081A                     	;# 
  1637  081A                     	;# 
  1638  081B                     	;# 
  1639  081C                     	;# 
  1640  081C                     	;# 
  1641  081D                     	;# 
  1642  088C                     	;# 
  1643  088D                     	;# 
  1644  088E                     	;# 
  1645  088F                     	;# 
  1646  088F                     	;# 
  1647  0890                     	;# 
  1648  0891                     	;# 
  1649  0892                     	;# 
  1650  0893                     	;# 
  1651  0893                     	;# 
  1652  0894                     	;# 
  1653  0895                     	;# 
  1654  0896                     	;# 
  1655  0897                     	;# 
  1656  0897                     	;# 
  1657  0898                     	;# 
  1658  0899                     	;# 
  1659  0D8C                     	;# 
  1660  0D8C                     	;# 
  1661  0D8D                     	;# 
  1662  0D8E                     	;# 
  1663  0D8F                     	;# 
  1664  0D8F                     	;# 
  1665  0D90                     	;# 
  1666  0D91                     	;# 
  1667  0D92                     	;# 
  1668  0D92                     	;# 
  1669  0D93                     	;# 
  1670  0D94                     	;# 
  1671  0D95                     	;# 
  1672  0D95                     	;# 
  1673  0D96                     	;# 
  1674  0D97                     	;# 
  1675  0D98                     	;# 
  1676  0D99                     	;# 
  1677  0D9A                     	;# 
  1678  0D9B                     	;# 
  1679  0D9C                     	;# 
  1680  0D9D                     	;# 
  1681  0D9E                     	;# 
  1682  0D9E                     	;# 
  1683  0D9F                     	;# 
  1684  0DA0                     	;# 
  1685  0DA1                     	;# 
  1686  0DA1                     	;# 
  1687  0DA2                     	;# 
  1688  0DA3                     	;# 
  1689  0DA4                     	;# 
  1690  0DA4                     	;# 
  1691  0DA5                     	;# 
  1692  0DA6                     	;# 
  1693  0DA7                     	;# 
  1694  0DA7                     	;# 
  1695  0DA8                     	;# 
  1696  0DA9                     	;# 
  1697  0DAA                     	;# 
  1698  0DAB                     	;# 
  1699  0DAC                     	;# 
  1700  0DAD                     	;# 
  1701  0DAE                     	;# 
  1702  0DAF                     	;# 
  1703  0E0F                     	;# 
  1704  0E10                     	;# 
  1705  0E11                     	;# 
  1706  0E12                     	;# 
  1707  0E13                     	;# 
  1708  0E14                     	;# 
  1709  0E15                     	;# 
  1710  0E16                     	;# 
  1711  0E17                     	;# 
  1712  0E18                     	;# 
  1713  0E19                     	;# 
  1714  0E1A                     	;# 
  1715  0E1B                     	;# 
  1716  0E1C                     	;# 
  1717  0E1D                     	;# 
  1718  0E1E                     	;# 
  1719  0E1F                     	;# 
  1720  0E20                     	;# 
  1721  0E21                     	;# 
  1722  0E22                     	;# 
  1723  0E23                     	;# 
  1724  0E24                     	;# 
  1725  0E25                     	;# 
  1726  0E26                     	;# 
  1727  0E27                     	;# 
  1728  0E28                     	;# 
  1729  0E29                     	;# 
  1730  0E2A                     	;# 
  1731  0E2B                     	;# 
  1732  0E2C                     	;# 
  1733  0E2D                     	;# 
  1734  0E2E                     	;# 
  1735  0E90                     	;# 
  1736  0E91                     	;# 
  1737  0E92                     	;# 
  1738  0E94                     	;# 
  1739  0E95                     	;# 
  1740  0E9C                     	;# 
  1741  0E9D                     	;# 
  1742  0E9E                     	;# 
  1743  0E9F                     	;# 
  1744  0EA0                     	;# 
  1745  0EA1                     	;# 
  1746  0EA2                     	;# 
  1747  0EA3                     	;# 
  1748  0EA4                     	;# 
  1749  0EA5                     	;# 
  1750  0EA6                     	;# 
  1751  0EA7                     	;# 
  1752  0F0F                     	;# 
  1753  0F10                     	;# 
  1754  0F11                     	;# 
  1755  0F12                     	;# 
  1756  0F13                     	;# 
  1757  0F14                     	;# 
  1758  0F15                     	;# 
  1759  0F16                     	;# 
  1760  0F17                     	;# 
  1761  0F18                     	;# 
  1762  0F19                     	;# 
  1763  0F1A                     	;# 
  1764  0F1B                     	;# 
  1765  0F1C                     	;# 
  1766  0F1D                     	;# 
  1767  0F1E                     	;# 
  1768  0F1F                     	;# 
  1769  0F20                     	;# 
  1770  0F21                     	;# 
  1771  0F22                     	;# 
  1772  0F23                     	;# 
  1773  0F24                     	;# 
  1774  0F25                     	;# 
  1775  0F26                     	;# 
  1776  0F27                     	;# 
  1777  0F28                     	;# 
  1778  0F29                     	;# 
  1779  0F2A                     	;# 
  1780  0F2B                     	;# 
  1781  0F2C                     	;# 
  1782  0F2D                     	;# 
  1783  0F2E                     	;# 
  1784  0F2F                     	;# 
  1785  0F30                     	;# 
  1786  0F31                     	;# 
  1787  0F32                     	;# 
  1788  0F33                     	;# 
  1789  0F34                     	;# 
  1790  0F35                     	;# 
  1791  0F36                     	;# 
  1792  0F37                     	;# 
  1793  0FE4                     	;# 
  1794  0FE5                     	;# 
  1795  0FE6                     	;# 
  1796  0FE7                     	;# 
  1797  0FE8                     	;# 
  1798  0FE9                     	;# 
  1799  0FEA                     	;# 
  1800  0FEB                     	;# 
  1801  0FED                     	;# 
  1802  0FEE                     	;# 
  1803  0FEF                     	;# 
  1804  0000                     	;# 
  1805  0001                     	;# 
  1806  0002                     	;# 
  1807  0003                     	;# 
  1808  0004                     	;# 
  1809  0005                     	;# 
  1810  0006                     	;# 
  1811  0007                     	;# 
  1812  0008                     	;# 
  1813  0009                     	;# 
  1814  000A                     	;# 
  1815  000B                     	;# 
  1816  000C                     	;# 
  1817  000D                     	;# 
  1818  000E                     	;# 
  1819  0010                     	;# 
  1820  0011                     	;# 
  1821  0012                     	;# 
  1822  0013                     	;# 
  1823  0014                     	;# 
  1824  0015                     	;# 
  1825  0016                     	;# 
  1826  0016                     	;# 
  1827  0017                     	;# 
  1828  0018                     	;# 
  1829  0019                     	;# 
  1830  001A                     	;# 
  1831  001A                     	;# 
  1832  001B                     	;# 
  1833  001B                     	;# 
  1834  001C                     	;# 
  1835  001D                     	;# 
  1836  001E                     	;# 
  1837  001F                     	;# 
  1838  008C                     	;# 
  1839  008D                     	;# 
  1840  008E                     	;# 
  1841  0090                     	;# 
  1842  0091                     	;# 
  1843  0092                     	;# 
  1844  0093                     	;# 
  1845  0094                     	;# 
  1846  0095                     	;# 
  1847  0096                     	;# 
  1848  0098                     	;# 
  1849  0099                     	;# 
  1850  009A                     	;# 
  1851  009B                     	;# 
  1852  009B                     	;# 
  1853  009C                     	;# 
  1854  009D                     	;# 
  1855  009E                     	;# 
  1856  009F                     	;# 
  1857  010C                     	;# 
  1858  010D                     	;# 
  1859  010E                     	;# 
  1860  0111                     	;# 
  1861  0112                     	;# 
  1862  0113                     	;# 
  1863  0114                     	;# 
  1864  0115                     	;# 
  1865  0116                     	;# 
  1866  0117                     	;# 
  1867  0118                     	;# 
  1868  0119                     	;# 
  1869  011C                     	;# 
  1870  018C                     	;# 
  1871  018D                     	;# 
  1872  018E                     	;# 
  1873  0191                     	;# 
  1874  0191                     	;# 
  1875  0192                     	;# 
  1876  0193                     	;# 
  1877  0193                     	;# 
  1878  0194                     	;# 
  1879  0195                     	;# 
  1880  0196                     	;# 
  1881  0197                     	;# 
  1882  0199                     	;# 
  1883  0199                     	;# 
  1884  0199                     	;# 
  1885  019A                     	;# 
  1886  019A                     	;# 
  1887  019A                     	;# 
  1888  019B                     	;# 
  1889  019B                     	;# 
  1890  019B                     	;# 
  1891  019B                     	;# 
  1892  019B                     	;# 
  1893  019C                     	;# 
  1894  019C                     	;# 
  1895  019C                     	;# 
  1896  019D                     	;# 
  1897  019D                     	;# 
  1898  019D                     	;# 
  1899  019E                     	;# 
  1900  019E                     	;# 
  1901  019E                     	;# 
  1902  019F                     	;# 
  1903  019F                     	;# 
  1904  019F                     	;# 
  1905  019F                     	;# 
  1906  019F                     	;# 
  1907  020C                     	;# 
  1908  020D                     	;# 
  1909  020E                     	;# 
  1910  0211                     	;# 
  1911  0211                     	;# 
  1912  0212                     	;# 
  1913  0212                     	;# 
  1914  0213                     	;# 
  1915  0213                     	;# 
  1916  0214                     	;# 
  1917  0214                     	;# 
  1918  0215                     	;# 
  1919  0215                     	;# 
  1920  0215                     	;# 
  1921  0215                     	;# 
  1922  0216                     	;# 
  1923  0216                     	;# 
  1924  0217                     	;# 
  1925  0217                     	;# 
  1926  028C                     	;# 
  1927  028D                     	;# 
  1928  028E                     	;# 
  1929  0291                     	;# 
  1930  0291                     	;# 
  1931  0292                     	;# 
  1932  0293                     	;# 
  1933  0294                     	;# 
  1934  0298                     	;# 
  1935  0298                     	;# 
  1936  0299                     	;# 
  1937  029A                     	;# 
  1938  029B                     	;# 
  1939  029E                     	;# 
  1940  030C                     	;# 
  1941  030D                     	;# 
  1942  030E                     	;# 
  1943  038C                     	;# 
  1944  038D                     	;# 
  1945  038E                     	;# 
  1946  0391                     	;# 
  1947  0392                     	;# 
  1948  0393                     	;# 
  1949  0394                     	;# 
  1950  0395                     	;# 
  1951  0396                     	;# 
  1952  0397                     	;# 
  1953  0398                     	;# 
  1954  0399                     	;# 
  1955  040E                     	;# 
  1956  0413                     	;# 
  1957  0413                     	;# 
  1958  0414                     	;# 
  1959  0414                     	;# 
  1960  0415                     	;# 
  1961  0416                     	;# 
  1962  0417                     	;# 
  1963  0418                     	;# 
  1964  041A                     	;# 
  1965  041A                     	;# 
  1966  041B                     	;# 
  1967  041B                     	;# 
  1968  041C                     	;# 
  1969  041D                     	;# 
  1970  041E                     	;# 
  1971  041F                     	;# 
  1972  0493                     	;# 
  1973  0494                     	;# 
  1974  0495                     	;# 
  1975  0496                     	;# 
  1976  049A                     	;# 
  1977  049B                     	;# 
  1978  049C                     	;# 
  1979  049D                     	;# 
  1980  058C                     	;# 
  1981  058C                     	;# 
  1982  058D                     	;# 
  1983  058E                     	;# 
  1984  058E                     	;# 
  1985  058F                     	;# 
  1986  0590                     	;# 
  1987  0590                     	;# 
  1988  0591                     	;# 
  1989  0592                     	;# 
  1990  0592                     	;# 
  1991  0593                     	;# 
  1992  0594                     	;# 
  1993  0594                     	;# 
  1994  0595                     	;# 
  1995  0596                     	;# 
  1996  0596                     	;# 
  1997  0597                     	;# 
  1998  0598                     	;# 
  1999  0599                     	;# 
  2000  059A                     	;# 
  2001  059B                     	;# 
  2002  059B                     	;# 
  2003  059C                     	;# 
  2004  059D                     	;# 
  2005  060C                     	;# 
  2006  060C                     	;# 
  2007  060D                     	;# 
  2008  060E                     	;# 
  2009  060F                     	;# 
  2010  060F                     	;# 
  2011  0610                     	;# 
  2012  0611                     	;# 
  2013  0612                     	;# 
  2014  0613                     	;# 
  2015  0614                     	;# 
  2016  0617                     	;# 
  2017  0618                     	;# 
  2018  0619                     	;# 
  2019  061A                     	;# 
  2020  061B                     	;# 
  2021  061C                     	;# 
  2022  0691                     	;# 
  2023  0692                     	;# 
  2024  0693                     	;# 
  2025  0694                     	;# 
  2026  0695                     	;# 
  2027  0696                     	;# 
  2028  0697                     	;# 
  2029  0699                     	;# 
  2030  069A                     	;# 
  2031  0711                     	;# 
  2032  0712                     	;# 
  2033  0713                     	;# 
  2034  0714                     	;# 
  2035  0715                     	;# 
  2036  0718                     	;# 
  2037  0718                     	;# 
  2038  0719                     	;# 
  2039  071A                     	;# 
  2040  071A                     	;# 
  2041  071B                     	;# 
  2042  071C                     	;# 
  2043  071D                     	;# 
  2044  0791                     	;# 
  2045  0791                     	;# 
  2046  0792                     	;# 
  2047  0793                     	;# 
  2048  0793                     	;# 
  2049  0794                     	;# 
  2050  0795                     	;# 
  2051  0795                     	;# 
  2052  0796                     	;# 
  2053  0797                     	;# 
  2054  0797                     	;# 
  2055  0798                     	;# 
  2056  0799                     	;# 
  2057  079A                     	;# 
  2058  080C                     	;# 
  2059  080C                     	;# 
  2060  080D                     	;# 
  2061  080E                     	;# 
  2062  080E                     	;# 
  2063  080F                     	;# 
  2064  0810                     	;# 
  2065  0810                     	;# 
  2066  0811                     	;# 
  2067  0812                     	;# 
  2068  0812                     	;# 
  2069  0813                     	;# 
  2070  0814                     	;# 
  2071  0815                     	;# 
  2072  0816                     	;# 
  2073  0817                     	;# 
  2074  0818                     	;# 
  2075  0819                     	;# 
  2076  081A                     	;# 
  2077  081A                     	;# 
  2078  081B                     	;# 
  2079  081C                     	;# 
  2080  081C                     	;# 
  2081  081D                     	;# 
  2082  088C                     	;# 
  2083  088D                     	;# 
  2084  088E                     	;# 
  2085  088F                     	;# 
  2086  088F                     	;# 
  2087  0890                     	;# 
  2088  0891                     	;# 
  2089  0892                     	;# 
  2090  0893                     	;# 
  2091  0893                     	;# 
  2092  0894                     	;# 
  2093  0895                     	;# 
  2094  0896                     	;# 
  2095  0897                     	;# 
  2096  0897                     	;# 
  2097  0898                     	;# 
  2098  0899                     	;# 
  2099  0D8C                     	;# 
  2100  0D8C                     	;# 
  2101  0D8D                     	;# 
  2102  0D8E                     	;# 
  2103  0D8F                     	;# 
  2104  0D8F                     	;# 
  2105  0D90                     	;# 
  2106  0D91                     	;# 
  2107  0D92                     	;# 
  2108  0D92                     	;# 
  2109  0D93                     	;# 
  2110  0D94                     	;# 
  2111  0D95                     	;# 
  2112  0D95                     	;# 
  2113  0D96                     	;# 
  2114  0D97                     	;# 
  2115  0D98                     	;# 
  2116  0D99                     	;# 
  2117  0D9A                     	;# 
  2118  0D9B                     	;# 
  2119  0D9C                     	;# 
  2120  0D9D                     	;# 
  2121  0D9E                     	;# 
  2122  0D9E                     	;# 
  2123  0D9F                     	;# 
  2124  0DA0                     	;# 
  2125  0DA1                     	;# 
  2126  0DA1                     	;# 
  2127  0DA2                     	;# 
  2128  0DA3                     	;# 
  2129  0DA4                     	;# 
  2130  0DA4                     	;# 
  2131  0DA5                     	;# 
  2132  0DA6                     	;# 
  2133  0DA7                     	;# 
  2134  0DA7                     	;# 
  2135  0DA8                     	;# 
  2136  0DA9                     	;# 
  2137  0DAA                     	;# 
  2138  0DAB                     	;# 
  2139  0DAC                     	;# 
  2140  0DAD                     	;# 
  2141  0DAE                     	;# 
  2142  0DAF                     	;# 
  2143  0E0F                     	;# 
  2144  0E10                     	;# 
  2145  0E11                     	;# 
  2146  0E12                     	;# 
  2147  0E13                     	;# 
  2148  0E14                     	;# 
  2149  0E15                     	;# 
  2150  0E16                     	;# 
  2151  0E17                     	;# 
  2152  0E18                     	;# 
  2153  0E19                     	;# 
  2154  0E1A                     	;# 
  2155  0E1B                     	;# 
  2156  0E1C                     	;# 
  2157  0E1D                     	;# 
  2158  0E1E                     	;# 
  2159  0E1F                     	;# 
  2160  0E20                     	;# 
  2161  0E21                     	;# 
  2162  0E22                     	;# 
  2163  0E23                     	;# 
  2164  0E24                     	;# 
  2165  0E25                     	;# 
  2166  0E26                     	;# 
  2167  0E27                     	;# 
  2168  0E28                     	;# 
  2169  0E29                     	;# 
  2170  0E2A                     	;# 
  2171  0E2B                     	;# 
  2172  0E2C                     	;# 
  2173  0E2D                     	;# 
  2174  0E2E                     	;# 
  2175  0E90                     	;# 
  2176  0E91                     	;# 
  2177  0E92                     	;# 
  2178  0E94                     	;# 
  2179  0E95                     	;# 
  2180  0E9C                     	;# 
  2181  0E9D                     	;# 
  2182  0E9E                     	;# 
  2183  0E9F                     	;# 
  2184  0EA0                     	;# 
  2185  0EA1                     	;# 
  2186  0EA2                     	;# 
  2187  0EA3                     	;# 
  2188  0EA4                     	;# 
  2189  0EA5                     	;# 
  2190  0EA6                     	;# 
  2191  0EA7                     	;# 
  2192  0F0F                     	;# 
  2193  0F10                     	;# 
  2194  0F11                     	;# 
  2195  0F12                     	;# 
  2196  0F13                     	;# 
  2197  0F14                     	;# 
  2198  0F15                     	;# 
  2199  0F16                     	;# 
  2200  0F17                     	;# 
  2201  0F18                     	;# 
  2202  0F19                     	;# 
  2203  0F1A                     	;# 
  2204  0F1B                     	;# 
  2205  0F1C                     	;# 
  2206  0F1D                     	;# 
  2207  0F1E                     	;# 
  2208  0F1F                     	;# 
  2209  0F20                     	;# 
  2210  0F21                     	;# 
  2211  0F22                     	;# 
  2212  0F23                     	;# 
  2213  0F24                     	;# 
  2214  0F25                     	;# 
  2215  0F26                     	;# 
  2216  0F27                     	;# 
  2217  0F28                     	;# 
  2218  0F29                     	;# 
  2219  0F2A                     	;# 
  2220  0F2B                     	;# 
  2221  0F2C                     	;# 
  2222  0F2D                     	;# 
  2223  0F2E                     	;# 
  2224  0F2F                     	;# 
  2225  0F30                     	;# 
  2226  0F31                     	;# 
  2227  0F32                     	;# 
  2228  0F33                     	;# 
  2229  0F34                     	;# 
  2230  0F35                     	;# 
  2231  0F36                     	;# 
  2232  0F37                     	;# 
  2233  0FE4                     	;# 
  2234  0FE5                     	;# 
  2235  0FE6                     	;# 
  2236  0FE7                     	;# 
  2237  0FE8                     	;# 
  2238  0FE9                     	;# 
  2239  0FEA                     	;# 
  2240  0FEB                     	;# 
  2241  0FED                     	;# 
  2242  0FEE                     	;# 
  2243  0FEF                     	;# 
  2244  0000                     	;# 
  2245  0001                     	;# 
  2246  0002                     	;# 
  2247  0003                     	;# 
  2248  0004                     	;# 
  2249  0005                     	;# 
  2250  0006                     	;# 
  2251  0007                     	;# 
  2252  0008                     	;# 
  2253  0009                     	;# 
  2254  000A                     	;# 
  2255  000B                     	;# 
  2256  000C                     	;# 
  2257  000D                     	;# 
  2258  000E                     	;# 
  2259  0010                     	;# 
  2260  0011                     	;# 
  2261  0012                     	;# 
  2262  0013                     	;# 
  2263  0014                     	;# 
  2264  0015                     	;# 
  2265  0016                     	;# 
  2266  0016                     	;# 
  2267  0017                     	;# 
  2268  0018                     	;# 
  2269  0019                     	;# 
  2270  001A                     	;# 
  2271  001A                     	;# 
  2272  001B                     	;# 
  2273  001B                     	;# 
  2274  001C                     	;# 
  2275  001D                     	;# 
  2276  001E                     	;# 
  2277  001F                     	;# 
  2278  008C                     	;# 
  2279  008D                     	;# 
  2280  008E                     	;# 
  2281  0090                     	;# 
  2282  0091                     	;# 
  2283  0092                     	;# 
  2284  0093                     	;# 
  2285  0094                     	;# 
  2286  0095                     	;# 
  2287  0096                     	;# 
  2288  0098                     	;# 
  2289  0099                     	;# 
  2290  009A                     	;# 
  2291  009B                     	;# 
  2292  009B                     	;# 
  2293  009C                     	;# 
  2294  009D                     	;# 
  2295  009E                     	;# 
  2296  009F                     	;# 
  2297  010C                     	;# 
  2298  010D                     	;# 
  2299  010E                     	;# 
  2300  0111                     	;# 
  2301  0112                     	;# 
  2302  0113                     	;# 
  2303  0114                     	;# 
  2304  0115                     	;# 
  2305  0116                     	;# 
  2306  0117                     	;# 
  2307  0118                     	;# 
  2308  0119                     	;# 
  2309  011C                     	;# 
  2310  018C                     	;# 
  2311  018D                     	;# 
  2312  018E                     	;# 
  2313  0191                     	;# 
  2314  0191                     	;# 
  2315  0192                     	;# 
  2316  0193                     	;# 
  2317  0193                     	;# 
  2318  0194                     	;# 
  2319  0195                     	;# 
  2320  0196                     	;# 
  2321  0197                     	;# 
  2322  0199                     	;# 
  2323  0199                     	;# 
  2324  0199                     	;# 
  2325  019A                     	;# 
  2326  019A                     	;# 
  2327  019A                     	;# 
  2328  019B                     	;# 
  2329  019B                     	;# 
  2330  019B                     	;# 
  2331  019B                     	;# 
  2332  019B                     	;# 
  2333  019C                     	;# 
  2334  019C                     	;# 
  2335  019C                     	;# 
  2336  019D                     	;# 
  2337  019D                     	;# 
  2338  019D                     	;# 
  2339  019E                     	;# 
  2340  019E                     	;# 
  2341  019E                     	;# 
  2342  019F                     	;# 
  2343  019F                     	;# 
  2344  019F                     	;# 
  2345  019F                     	;# 
  2346  019F                     	;# 
  2347  020C                     	;# 
  2348  020D                     	;# 
  2349  020E                     	;# 
  2350  0211                     	;# 
  2351  0211                     	;# 
  2352  0212                     	;# 
  2353  0212                     	;# 
  2354  0213                     	;# 
  2355  0213                     	;# 
  2356  0214                     	;# 
  2357  0214                     	;# 
  2358  0215                     	;# 
  2359  0215                     	;# 
  2360  0215                     	;# 
  2361  0215                     	;# 
  2362  0216                     	;# 
  2363  0216                     	;# 
  2364  0217                     	;# 
  2365  0217                     	;# 
  2366  028C                     	;# 
  2367  028D                     	;# 
  2368  028E                     	;# 
  2369  0291                     	;# 
  2370  0291                     	;# 
  2371  0292                     	;# 
  2372  0293                     	;# 
  2373  0294                     	;# 
  2374  0298                     	;# 
  2375  0298                     	;# 
  2376  0299                     	;# 
  2377  029A                     	;# 
  2378  029B                     	;# 
  2379  029E                     	;# 
  2380  030C                     	;# 
  2381  030D                     	;# 
  2382  030E                     	;# 
  2383  038C                     	;# 
  2384  038D                     	;# 
  2385  038E                     	;# 
  2386  0391                     	;# 
  2387  0392                     	;# 
  2388  0393                     	;# 
  2389  0394                     	;# 
  2390  0395                     	;# 
  2391  0396                     	;# 
  2392  0397                     	;# 
  2393  0398                     	;# 
  2394  0399                     	;# 
  2395  040E                     	;# 
  2396  0413                     	;# 
  2397  0413                     	;# 
  2398  0414                     	;# 
  2399  0414                     	;# 
  2400  0415                     	;# 
  2401  0416                     	;# 
  2402  0417                     	;# 
  2403  0418                     	;# 
  2404  041A                     	;# 
  2405  041A                     	;# 
  2406  041B                     	;# 
  2407  041B                     	;# 
  2408  041C                     	;# 
  2409  041D                     	;# 
  2410  041E                     	;# 
  2411  041F                     	;# 
  2412  0493                     	;# 
  2413  0494                     	;# 
  2414  0495                     	;# 
  2415  0496                     	;# 
  2416  049A                     	;# 
  2417  049B                     	;# 
  2418  049C                     	;# 
  2419  049D                     	;# 
  2420  058C                     	;# 
  2421  058C                     	;# 
  2422  058D                     	;# 
  2423  058E                     	;# 
  2424  058E                     	;# 
  2425  058F                     	;# 
  2426  0590                     	;# 
  2427  0590                     	;# 
  2428  0591                     	;# 
  2429  0592                     	;# 
  2430  0592                     	;# 
  2431  0593                     	;# 
  2432  0594                     	;# 
  2433  0594                     	;# 
  2434  0595                     	;# 
  2435  0596                     	;# 
  2436  0596                     	;# 
  2437  0597                     	;# 
  2438  0598                     	;# 
  2439  0599                     	;# 
  2440  059A                     	;# 
  2441  059B                     	;# 
  2442  059B                     	;# 
  2443  059C                     	;# 
  2444  059D                     	;# 
  2445  060C                     	;# 
  2446  060C                     	;# 
  2447  060D                     	;# 
  2448  060E                     	;# 
  2449  060F                     	;# 
  2450  060F                     	;# 
  2451  0610                     	;# 
  2452  0611                     	;# 
  2453  0612                     	;# 
  2454  0613                     	;# 
  2455  0614                     	;# 
  2456  0617                     	;# 
  2457  0618                     	;# 
  2458  0619                     	;# 
  2459  061A                     	;# 
  2460  061B                     	;# 
  2461  061C                     	;# 
  2462  0691                     	;# 
  2463  0692                     	;# 
  2464  0693                     	;# 
  2465  0694                     	;# 
  2466  0695                     	;# 
  2467  0696                     	;# 
  2468  0697                     	;# 
  2469  0699                     	;# 
  2470  069A                     	;# 
  2471  0711                     	;# 
  2472  0712                     	;# 
  2473  0713                     	;# 
  2474  0714                     	;# 
  2475  0715                     	;# 
  2476  0718                     	;# 
  2477  0718                     	;# 
  2478  0719                     	;# 
  2479  071A                     	;# 
  2480  071A                     	;# 
  2481  071B                     	;# 
  2482  071C                     	;# 
  2483  071D                     	;# 
  2484  0791                     	;# 
  2485  0791                     	;# 
  2486  0792                     	;# 
  2487  0793                     	;# 
  2488  0793                     	;# 
  2489  0794                     	;# 
  2490  0795                     	;# 
  2491  0795                     	;# 
  2492  0796                     	;# 
  2493  0797                     	;# 
  2494  0797                     	;# 
  2495  0798                     	;# 
  2496  0799                     	;# 
  2497  079A                     	;# 
  2498  080C                     	;# 
  2499  080C                     	;# 
  2500  080D                     	;# 
  2501  080E                     	;# 
  2502  080E                     	;# 
  2503  080F                     	;# 
  2504  0810                     	;# 
  2505  0810                     	;# 
  2506  0811                     	;# 
  2507  0812                     	;# 
  2508  0812                     	;# 
  2509  0813                     	;# 
  2510  0814                     	;# 
  2511  0815                     	;# 
  2512  0816                     	;# 
  2513  0817                     	;# 
  2514  0818                     	;# 
  2515  0819                     	;# 
  2516  081A                     	;# 
  2517  081A                     	;# 
  2518  081B                     	;# 
  2519  081C                     	;# 
  2520  081C                     	;# 
  2521  081D                     	;# 
  2522  088C                     	;# 
  2523  088D                     	;# 
  2524  088E                     	;# 
  2525  088F                     	;# 
  2526  088F                     	;# 
  2527  0890                     	;# 
  2528  0891                     	;# 
  2529  0892                     	;# 
  2530  0893                     	;# 
  2531  0893                     	;# 
  2532  0894                     	;# 
  2533  0895                     	;# 
  2534  0896                     	;# 
  2535  0897                     	;# 
  2536  0897                     	;# 
  2537  0898                     	;# 
  2538  0899                     	;# 
  2539  0D8C                     	;# 
  2540  0D8C                     	;# 
  2541  0D8D                     	;# 
  2542  0D8E                     	;# 
  2543  0D8F                     	;# 
  2544  0D8F                     	;# 
  2545  0D90                     	;# 
  2546  0D91                     	;# 
  2547  0D92                     	;# 
  2548  0D92                     	;# 
  2549  0D93                     	;# 
  2550  0D94                     	;# 
  2551  0D95                     	;# 
  2552  0D95                     	;# 
  2553  0D96                     	;# 
  2554  0D97                     	;# 
  2555  0D98                     	;# 
  2556  0D99                     	;# 
  2557  0D9A                     	;# 
  2558  0D9B                     	;# 
  2559  0D9C                     	;# 
  2560  0D9D                     	;# 
  2561  0D9E                     	;# 
  2562  0D9E                     	;# 
  2563  0D9F                     	;# 
  2564  0DA0                     	;# 
  2565  0DA1                     	;# 
  2566  0DA1                     	;# 
  2567  0DA2                     	;# 
  2568  0DA3                     	;# 
  2569  0DA4                     	;# 
  2570  0DA4                     	;# 
  2571  0DA5                     	;# 
  2572  0DA6                     	;# 
  2573  0DA7                     	;# 
  2574  0DA7                     	;# 
  2575  0DA8                     	;# 
  2576  0DA9                     	;# 
  2577  0DAA                     	;# 
  2578  0DAB                     	;# 
  2579  0DAC                     	;# 
  2580  0DAD                     	;# 
  2581  0DAE                     	;# 
  2582  0DAF                     	;# 
  2583  0E0F                     	;# 
  2584  0E10                     	;# 
  2585  0E11                     	;# 
  2586  0E12                     	;# 
  2587  0E13                     	;# 
  2588  0E14                     	;# 
  2589  0E15                     	;# 
  2590  0E16                     	;# 
  2591  0E17                     	;# 
  2592  0E18                     	;# 
  2593  0E19                     	;# 
  2594  0E1A                     	;# 
  2595  0E1B                     	;# 
  2596  0E1C                     	;# 
  2597  0E1D                     	;# 
  2598  0E1E                     	;# 
  2599  0E1F                     	;# 
  2600  0E20                     	;# 
  2601  0E21                     	;# 
  2602  0E22                     	;# 
  2603  0E23                     	;# 
  2604  0E24                     	;# 
  2605  0E25                     	;# 
  2606  0E26                     	;# 
  2607  0E27                     	;# 
  2608  0E28                     	;# 
  2609  0E29                     	;# 
  2610  0E2A                     	;# 
  2611  0E2B                     	;# 
  2612  0E2C                     	;# 
  2613  0E2D                     	;# 
  2614  0E2E                     	;# 
  2615  0E90                     	;# 
  2616  0E91                     	;# 
  2617  0E92                     	;# 
  2618  0E94                     	;# 
  2619  0E95                     	;# 
  2620  0E9C                     	;# 
  2621  0E9D                     	;# 
  2622  0E9E                     	;# 
  2623  0E9F                     	;# 
  2624  0EA0                     	;# 
  2625  0EA1                     	;# 
  2626  0EA2                     	;# 
  2627  0EA3                     	;# 
  2628  0EA4                     	;# 
  2629  0EA5                     	;# 
  2630  0EA6                     	;# 
  2631  0EA7                     	;# 
  2632  0F0F                     	;# 
  2633  0F10                     	;# 
  2634  0F11                     	;# 
  2635  0F12                     	;# 
  2636  0F13                     	;# 
  2637  0F14                     	;# 
  2638  0F15                     	;# 
  2639  0F16                     	;# 
  2640  0F17                     	;# 
  2641  0F18                     	;# 
  2642  0F19                     	;# 
  2643  0F1A                     	;# 
  2644  0F1B                     	;# 
  2645  0F1C                     	;# 
  2646  0F1D                     	;# 
  2647  0F1E                     	;# 
  2648  0F1F                     	;# 
  2649  0F20                     	;# 
  2650  0F21                     	;# 
  2651  0F22                     	;# 
  2652  0F23                     	;# 
  2653  0F24                     	;# 
  2654  0F25                     	;# 
  2655  0F26                     	;# 
  2656  0F27                     	;# 
  2657  0F28                     	;# 
  2658  0F29                     	;# 
  2659  0F2A                     	;# 
  2660  0F2B                     	;# 
  2661  0F2C                     	;# 
  2662  0F2D                     	;# 
  2663  0F2E                     	;# 
  2664  0F2F                     	;# 
  2665  0F30                     	;# 
  2666  0F31                     	;# 
  2667  0F32                     	;# 
  2668  0F33                     	;# 
  2669  0F34                     	;# 
  2670  0F35                     	;# 
  2671  0F36                     	;# 
  2672  0F37                     	;# 
  2673  0FE4                     	;# 
  2674  0FE5                     	;# 
  2675  0FE6                     	;# 
  2676  0FE7                     	;# 
  2677  0FE8                     	;# 
  2678  0FE9                     	;# 
  2679  0FEA                     	;# 
  2680  0FEB                     	;# 
  2681  0FED                     	;# 
  2682  0FEE                     	;# 
  2683  0FEF                     	;# 
  2684  0000                     	;# 
  2685  0001                     	;# 
  2686  0002                     	;# 
  2687  0003                     	;# 
  2688  0004                     	;# 
  2689  0005                     	;# 
  2690  0006                     	;# 
  2691  0007                     	;# 
  2692  0008                     	;# 
  2693  0009                     	;# 
  2694  000A                     	;# 
  2695  000B                     	;# 
  2696  000C                     	;# 
  2697  000D                     	;# 
  2698  000E                     	;# 
  2699  0010                     	;# 
  2700  0011                     	;# 
  2701  0012                     	;# 
  2702  0013                     	;# 
  2703  0014                     	;# 
  2704  0015                     	;# 
  2705  0016                     	;# 
  2706  0016                     	;# 
  2707  0017                     	;# 
  2708  0018                     	;# 
  2709  0019                     	;# 
  2710  001A                     	;# 
  2711  001A                     	;# 
  2712  001B                     	;# 
  2713  001B                     	;# 
  2714  001C                     	;# 
  2715  001D                     	;# 
  2716  001E                     	;# 
  2717  001F                     	;# 
  2718  008C                     	;# 
  2719  008D                     	;# 
  2720  008E                     	;# 
  2721  0090                     	;# 
  2722  0091                     	;# 
  2723  0092                     	;# 
  2724  0093                     	;# 
  2725  0094                     	;# 
  2726  0095                     	;# 
  2727  0096                     	;# 
  2728  0098                     	;# 
  2729  0099                     	;# 
  2730  009A                     	;# 
  2731  009B                     	;# 
  2732  009B                     	;# 
  2733  009C                     	;# 
  2734  009D                     	;# 
  2735  009E                     	;# 
  2736  009F                     	;# 
  2737  010C                     	;# 
  2738  010D                     	;# 
  2739  010E                     	;# 
  2740  0111                     	;# 
  2741  0112                     	;# 
  2742  0113                     	;# 
  2743  0114                     	;# 
  2744  0115                     	;# 
  2745  0116                     	;# 
  2746  0117                     	;# 
  2747  0118                     	;# 
  2748  0119                     	;# 
  2749  011C                     	;# 
  2750  018C                     	;# 
  2751  018D                     	;# 
  2752  018E                     	;# 
  2753  0191                     	;# 
  2754  0191                     	;# 
  2755  0192                     	;# 
  2756  0193                     	;# 
  2757  0193                     	;# 
  2758  0194                     	;# 
  2759  0195                     	;# 
  2760  0196                     	;# 
  2761  0197                     	;# 
  2762  0199                     	;# 
  2763  0199                     	;# 
  2764  0199                     	;# 
  2765  019A                     	;# 
  2766  019A                     	;# 
  2767  019A                     	;# 
  2768  019B                     	;# 
  2769  019B                     	;# 
  2770  019B                     	;# 
  2771  019B                     	;# 
  2772  019B                     	;# 
  2773  019C                     	;# 
  2774  019C                     	;# 
  2775  019C                     	;# 
  2776  019D                     	;# 
  2777  019D                     	;# 
  2778  019D                     	;# 
  2779  019E                     	;# 
  2780  019E                     	;# 
  2781  019E                     	;# 
  2782  019F                     	;# 
  2783  019F                     	;# 
  2784  019F                     	;# 
  2785  019F                     	;# 
  2786  019F                     	;# 
  2787  020C                     	;# 
  2788  020D                     	;# 
  2789  020E                     	;# 
  2790  0211                     	;# 
  2791  0211                     	;# 
  2792  0212                     	;# 
  2793  0212                     	;# 
  2794  0213                     	;# 
  2795  0213                     	;# 
  2796  0214                     	;# 
  2797  0214                     	;# 
  2798  0215                     	;# 
  2799  0215                     	;# 
  2800  0215                     	;# 
  2801  0215                     	;# 
  2802  0216                     	;# 
  2803  0216                     	;# 
  2804  0217                     	;# 
  2805  0217                     	;# 
  2806  028C                     	;# 
  2807  028D                     	;# 
  2808  028E                     	;# 
  2809  0291                     	;# 
  2810  0291                     	;# 
  2811  0292                     	;# 
  2812  0293                     	;# 
  2813  0294                     	;# 
  2814  0298                     	;# 
  2815  0298                     	;# 
  2816  0299                     	;# 
  2817  029A                     	;# 
  2818  029B                     	;# 
  2819  029E                     	;# 
  2820  030C                     	;# 
  2821  030D                     	;# 
  2822  030E                     	;# 
  2823  038C                     	;# 
  2824  038D                     	;# 
  2825  038E                     	;# 
  2826  0391                     	;# 
  2827  0392                     	;# 
  2828  0393                     	;# 
  2829  0394                     	;# 
  2830  0395                     	;# 
  2831  0396                     	;# 
  2832  0397                     	;# 
  2833  0398                     	;# 
  2834  0399                     	;# 
  2835  040E                     	;# 
  2836  0413                     	;# 
  2837  0413                     	;# 
  2838  0414                     	;# 
  2839  0414                     	;# 
  2840  0415                     	;# 
  2841  0416                     	;# 
  2842  0417                     	;# 
  2843  0418                     	;# 
  2844  041A                     	;# 
  2845  041A                     	;# 
  2846  041B                     	;# 
  2847  041B                     	;# 
  2848  041C                     	;# 
  2849  041D                     	;# 
  2850  041E                     	;# 
  2851  041F                     	;# 
  2852  0493                     	;# 
  2853  0494                     	;# 
  2854  0495                     	;# 
  2855  0496                     	;# 
  2856  049A                     	;# 
  2857  049B                     	;# 
  2858  049C                     	;# 
  2859  049D                     	;# 
  2860  058C                     	;# 
  2861  058C                     	;# 
  2862  058D                     	;# 
  2863  058E                     	;# 
  2864  058E                     	;# 
  2865  058F                     	;# 
  2866  0590                     	;# 
  2867  0590                     	;# 
  2868  0591                     	;# 
  2869  0592                     	;# 
  2870  0592                     	;# 
  2871  0593                     	;# 
  2872  0594                     	;# 
  2873  0594                     	;# 
  2874  0595                     	;# 
  2875  0596                     	;# 
  2876  0596                     	;# 
  2877  0597                     	;# 
  2878  0598                     	;# 
  2879  0599                     	;# 
  2880  059A                     	;# 
  2881  059B                     	;# 
  2882  059B                     	;# 
  2883  059C                     	;# 
  2884  059D                     	;# 
  2885  060C                     	;# 
  2886  060C                     	;# 
  2887  060D                     	;# 
  2888  060E                     	;# 
  2889  060F                     	;# 
  2890  060F                     	;# 
  2891  0610                     	;# 
  2892  0611                     	;# 
  2893  0612                     	;# 
  2894  0613                     	;# 
  2895  0614                     	;# 
  2896  0617                     	;# 
  2897  0618                     	;# 
  2898  0619                     	;# 
  2899  061A                     	;# 
  2900  061B                     	;# 
  2901  061C                     	;# 
  2902  0691                     	;# 
  2903  0692                     	;# 
  2904  0693                     	;# 
  2905  0694                     	;# 
  2906  0695                     	;# 
  2907  0696                     	;# 
  2908  0697                     	;# 
  2909  0699                     	;# 
  2910  069A                     	;# 
  2911  0711                     	;# 
  2912  0712                     	;# 
  2913  0713                     	;# 
  2914  0714                     	;# 
  2915  0715                     	;# 
  2916  0718                     	;# 
  2917  0718                     	;# 
  2918  0719                     	;# 
  2919  071A                     	;# 
  2920  071A                     	;# 
  2921  071B                     	;# 
  2922  071C                     	;# 
  2923  071D                     	;# 
  2924  0791                     	;# 
  2925  0791                     	;# 
  2926  0792                     	;# 
  2927  0793                     	;# 
  2928  0793                     	;# 
  2929  0794                     	;# 
  2930  0795                     	;# 
  2931  0795                     	;# 
  2932  0796                     	;# 
  2933  0797                     	;# 
  2934  0797                     	;# 
  2935  0798                     	;# 
  2936  0799                     	;# 
  2937  079A                     	;# 
  2938  080C                     	;# 
  2939  080C                     	;# 
  2940  080D                     	;# 
  2941  080E                     	;# 
  2942  080E                     	;# 
  2943  080F                     	;# 
  2944  0810                     	;# 
  2945  0810                     	;# 
  2946  0811                     	;# 
  2947  0812                     	;# 
  2948  0812                     	;# 
  2949  0813                     	;# 
  2950  0814                     	;# 
  2951  0815                     	;# 
  2952  0816                     	;# 
  2953  0817                     	;# 
  2954  0818                     	;# 
  2955  0819                     	;# 
  2956  081A                     	;# 
  2957  081A                     	;# 
  2958  081B                     	;# 
  2959  081C                     	;# 
  2960  081C                     	;# 
  2961  081D                     	;# 
  2962  088C                     	;# 
  2963  088D                     	;# 
  2964  088E                     	;# 
  2965  088F                     	;# 
  2966  088F                     	;# 
  2967  0890                     	;# 
  2968  0891                     	;# 
  2969  0892                     	;# 
  2970  0893                     	;# 
  2971  0893                     	;# 
  2972  0894                     	;# 
  2973  0895                     	;# 
  2974  0896                     	;# 
  2975  0897                     	;# 
  2976  0897                     	;# 
  2977  0898                     	;# 
  2978  0899                     	;# 
  2979  0D8C                     	;# 
  2980  0D8C                     	;# 
  2981  0D8D                     	;# 
  2982  0D8E                     	;# 
  2983  0D8F                     	;# 
  2984  0D8F                     	;# 
  2985  0D90                     	;# 
  2986  0D91                     	;# 
  2987  0D92                     	;# 
  2988  0D92                     	;# 
  2989  0D93                     	;# 
  2990  0D94                     	;# 
  2991  0D95                     	;# 
  2992  0D95                     	;# 
  2993  0D96                     	;# 
  2994  0D97                     	;# 
  2995  0D98                     	;# 
  2996  0D99                     	;# 
  2997  0D9A                     	;# 
  2998  0D9B                     	;# 
  2999  0D9C                     	;# 
  3000  0D9D                     	;# 
  3001  0D9E                     	;# 
  3002  0D9E                     	;# 
  3003  0D9F                     	;# 
  3004  0DA0                     	;# 
  3005  0DA1                     	;# 
  3006  0DA1                     	;# 
  3007  0DA2                     	;# 
  3008  0DA3                     	;# 
  3009  0DA4                     	;# 
  3010  0DA4                     	;# 
  3011  0DA5                     	;# 
  3012  0DA6                     	;# 
  3013  0DA7                     	;# 
  3014  0DA7                     	;# 
  3015  0DA8                     	;# 
  3016  0DA9                     	;# 
  3017  0DAA                     	;# 
  3018  0DAB                     	;# 
  3019  0DAC                     	;# 
  3020  0DAD                     	;# 
  3021  0DAE                     	;# 
  3022  0DAF                     	;# 
  3023  0E0F                     	;# 
  3024  0E10                     	;# 
  3025  0E11                     	;# 
  3026  0E12                     	;# 
  3027  0E13                     	;# 
  3028  0E14                     	;# 
  3029  0E15                     	;# 
  3030  0E16                     	;# 
  3031  0E17                     	;# 
  3032  0E18                     	;# 
  3033  0E19                     	;# 
  3034  0E1A                     	;# 
  3035  0E1B                     	;# 
  3036  0E1C                     	;# 
  3037  0E1D                     	;# 
  3038  0E1E                     	;# 
  3039  0E1F                     	;# 
  3040  0E20                     	;# 
  3041  0E21                     	;# 
  3042  0E22                     	;# 
  3043  0E23                     	;# 
  3044  0E24                     	;# 
  3045  0E25                     	;# 
  3046  0E26                     	;# 
  3047  0E27                     	;# 
  3048  0E28                     	;# 
  3049  0E29                     	;# 
  3050  0E2A                     	;# 
  3051  0E2B                     	;# 
  3052  0E2C                     	;# 
  3053  0E2D                     	;# 
  3054  0E2E                     	;# 
  3055  0E90                     	;# 
  3056  0E91                     	;# 
  3057  0E92                     	;# 
  3058  0E94                     	;# 
  3059  0E95                     	;# 
  3060  0E9C                     	;# 
  3061  0E9D                     	;# 
  3062  0E9E                     	;# 
  3063  0E9F                     	;# 
  3064  0EA0                     	;# 
  3065  0EA1                     	;# 
  3066  0EA2                     	;# 
  3067  0EA3                     	;# 
  3068  0EA4                     	;# 
  3069  0EA5                     	;# 
  3070  0EA6                     	;# 
  3071  0EA7                     	;# 
  3072  0F0F                     	;# 
  3073  0F10                     	;# 
  3074  0F11                     	;# 
  3075  0F12                     	;# 
  3076  0F13                     	;# 
  3077  0F14                     	;# 
  3078  0F15                     	;# 
  3079  0F16                     	;# 
  3080  0F17                     	;# 
  3081  0F18                     	;# 
  3082  0F19                     	;# 
  3083  0F1A                     	;# 
  3084  0F1B                     	;# 
  3085  0F1C                     	;# 
  3086  0F1D                     	;# 
  3087  0F1E                     	;# 
  3088  0F1F                     	;# 
  3089  0F20                     	;# 
  3090  0F21                     	;# 
  3091  0F22                     	;# 
  3092  0F23                     	;# 
  3093  0F24                     	;# 
  3094  0F25                     	;# 
  3095  0F26                     	;# 
  3096  0F27                     	;# 
  3097  0F28                     	;# 
  3098  0F29                     	;# 
  3099  0F2A                     	;# 
  3100  0F2B                     	;# 
  3101  0F2C                     	;# 
  3102  0F2D                     	;# 
  3103  0F2E                     	;# 
  3104  0F2F                     	;# 
  3105  0F30                     	;# 
  3106  0F31                     	;# 
  3107  0F32                     	;# 
  3108  0F33                     	;# 
  3109  0F34                     	;# 
  3110  0F35                     	;# 
  3111  0F36                     	;# 
  3112  0F37                     	;# 
  3113  0FE4                     	;# 
  3114  0FE5                     	;# 
  3115  0FE6                     	;# 
  3116  0FE7                     	;# 
  3117  0FE8                     	;# 
  3118  0FE9                     	;# 
  3119  0FEA                     	;# 
  3120  0FEB                     	;# 
  3121  0FED                     	;# 
  3122  0FEE                     	;# 
  3123  0FEF                     	;# 
  3124  0000                     	;# 
  3125  0001                     	;# 
  3126  0002                     	;# 
  3127  0003                     	;# 
  3128  0004                     	;# 
  3129  0005                     	;# 
  3130  0006                     	;# 
  3131  0007                     	;# 
  3132  0008                     	;# 
  3133  0009                     	;# 
  3134  000A                     	;# 
  3135  000B                     	;# 
  3136  000C                     	;# 
  3137  000D                     	;# 
  3138  000E                     	;# 
  3139  0010                     	;# 
  3140  0011                     	;# 
  3141  0012                     	;# 
  3142  0013                     	;# 
  3143  0014                     	;# 
  3144  0015                     	;# 
  3145  0016                     	;# 
  3146  0016                     	;# 
  3147  0017                     	;# 
  3148  0018                     	;# 
  3149  0019                     	;# 
  3150  001A                     	;# 
  3151  001A                     	;# 
  3152  001B                     	;# 
  3153  001B                     	;# 
  3154  001C                     	;# 
  3155  001D                     	;# 
  3156  001E                     	;# 
  3157  001F                     	;# 
  3158  008C                     	;# 
  3159  008D                     	;# 
  3160  008E                     	;# 
  3161  0090                     	;# 
  3162  0091                     	;# 
  3163  0092                     	;# 
  3164  0093                     	;# 
  3165  0094                     	;# 
  3166  0095                     	;# 
  3167  0096                     	;# 
  3168  0098                     	;# 
  3169  0099                     	;# 
  3170  009A                     	;# 
  3171  009B                     	;# 
  3172  009B                     	;# 
  3173  009C                     	;# 
  3174  009D                     	;# 
  3175  009E                     	;# 
  3176  009F                     	;# 
  3177  010C                     	;# 
  3178  010D                     	;# 
  3179  010E                     	;# 
  3180  0111                     	;# 
  3181  0112                     	;# 
  3182  0113                     	;# 
  3183  0114                     	;# 
  3184  0115                     	;# 
  3185  0116                     	;# 
  3186  0117                     	;# 
  3187  0118                     	;# 
  3188  0119                     	;# 
  3189  011C                     	;# 
  3190  018C                     	;# 
  3191  018D                     	;# 
  3192  018E                     	;# 
  3193  0191                     	;# 
  3194  0191                     	;# 
  3195  0192                     	;# 
  3196  0193                     	;# 
  3197  0193                     	;# 
  3198  0194                     	;# 
  3199  0195                     	;# 
  3200  0196                     	;# 
  3201  0197                     	;# 
  3202  0199                     	;# 
  3203  0199                     	;# 
  3204  0199                     	;# 
  3205  019A                     	;# 
  3206  019A                     	;# 
  3207  019A                     	;# 
  3208  019B                     	;# 
  3209  019B                     	;# 
  3210  019B                     	;# 
  3211  019B                     	;# 
  3212  019B                     	;# 
  3213  019C                     	;# 
  3214  019C                     	;# 
  3215  019C                     	;# 
  3216  019D                     	;# 
  3217  019D                     	;# 
  3218  019D                     	;# 
  3219  019E                     	;# 
  3220  019E                     	;# 
  3221  019E                     	;# 
  3222  019F                     	;# 
  3223  019F                     	;# 
  3224  019F                     	;# 
  3225  019F                     	;# 
  3226  019F                     	;# 
  3227  020C                     	;# 
  3228  020D                     	;# 
  3229  020E                     	;# 
  3230  0211                     	;# 
  3231  0211                     	;# 
  3232  0212                     	;# 
  3233  0212                     	;# 
  3234  0213                     	;# 
  3235  0213                     	;# 
  3236  0214                     	;# 
  3237  0214                     	;# 
  3238  0215                     	;# 
  3239  0215                     	;# 
  3240  0215                     	;# 
  3241  0215                     	;# 
  3242  0216                     	;# 
  3243  0216                     	;# 
  3244  0217                     	;# 
  3245  0217                     	;# 
  3246  028C                     	;# 
  3247  028D                     	;# 
  3248  028E                     	;# 
  3249  0291                     	;# 
  3250  0291                     	;# 
  3251  0292                     	;# 
  3252  0293                     	;# 
  3253  0294                     	;# 
  3254  0298                     	;# 
  3255  0298                     	;# 
  3256  0299                     	;# 
  3257  029A                     	;# 
  3258  029B                     	;# 
  3259  029E                     	;# 
  3260  030C                     	;# 
  3261  030D                     	;# 
  3262  030E                     	;# 
  3263  038C                     	;# 
  3264  038D                     	;# 
  3265  038E                     	;# 
  3266  0391                     	;# 
  3267  0392                     	;# 
  3268  0393                     	;# 
  3269  0394                     	;# 
  3270  0395                     	;# 
  3271  0396                     	;# 
  3272  0397                     	;# 
  3273  0398                     	;# 
  3274  0399                     	;# 
  3275  040E                     	;# 
  3276  0413                     	;# 
  3277  0413                     	;# 
  3278  0414                     	;# 
  3279  0414                     	;# 
  3280  0415                     	;# 
  3281  0416                     	;# 
  3282  0417                     	;# 
  3283  0418                     	;# 
  3284  041A                     	;# 
  3285  041A                     	;# 
  3286  041B                     	;# 
  3287  041B                     	;# 
  3288  041C                     	;# 
  3289  041D                     	;# 
  3290  041E                     	;# 
  3291  041F                     	;# 
  3292  0493                     	;# 
  3293  0494                     	;# 
  3294  0495                     	;# 
  3295  0496                     	;# 
  3296  049A                     	;# 
  3297  049B                     	;# 
  3298  049C                     	;# 
  3299  049D                     	;# 
  3300  058C                     	;# 
  3301  058C                     	;# 
  3302  058D                     	;# 
  3303  058E                     	;# 
  3304  058E                     	;# 
  3305  058F                     	;# 
  3306  0590                     	;# 
  3307  0590                     	;# 
  3308  0591                     	;# 
  3309  0592                     	;# 
  3310  0592                     	;# 
  3311  0593                     	;# 
  3312  0594                     	;# 
  3313  0594                     	;# 
  3314  0595                     	;# 
  3315  0596                     	;# 
  3316  0596                     	;# 
  3317  0597                     	;# 
  3318  0598                     	;# 
  3319  0599                     	;# 
  3320  059A                     	;# 
  3321  059B                     	;# 
  3322  059B                     	;# 
  3323  059C                     	;# 
  3324  059D                     	;# 
  3325  060C                     	;# 
  3326  060C                     	;# 
  3327  060D                     	;# 
  3328  060E                     	;# 
  3329  060F                     	;# 
  3330  060F                     	;# 
  3331  0610                     	;# 
  3332  0611                     	;# 
  3333  0612                     	;# 
  3334  0613                     	;# 
  3335  0614                     	;# 
  3336  0617                     	;# 
  3337  0618                     	;# 
  3338  0619                     	;# 
  3339  061A                     	;# 
  3340  061B                     	;# 
  3341  061C                     	;# 
  3342  0691                     	;# 
  3343  0692                     	;# 
  3344  0693                     	;# 
  3345  0694                     	;# 
  3346  0695                     	;# 
  3347  0696                     	;# 
  3348  0697                     	;# 
  3349  0699                     	;# 
  3350  069A                     	;# 
  3351  0711                     	;# 
  3352  0712                     	;# 
  3353  0713                     	;# 
  3354  0714                     	;# 
  3355  0715                     	;# 
  3356  0718                     	;# 
  3357  0718                     	;# 
  3358  0719                     	;# 
  3359  071A                     	;# 
  3360  071A                     	;# 
  3361  071B                     	;# 
  3362  071C                     	;# 
  3363  071D                     	;# 
  3364  0791                     	;# 
  3365  0791                     	;# 
  3366  0792                     	;# 
  3367  0793                     	;# 
  3368  0793                     	;# 
  3369  0794                     	;# 
  3370  0795                     	;# 
  3371  0795                     	;# 
  3372  0796                     	;# 
  3373  0797                     	;# 
  3374  0797                     	;# 
  3375  0798                     	;# 
  3376  0799                     	;# 
  3377  079A                     	;# 
  3378  080C                     	;# 
  3379  080C                     	;# 
  3380  080D                     	;# 
  3381  080E                     	;# 
  3382  080E                     	;# 
  3383  080F                     	;# 
  3384  0810                     	;# 
  3385  0810                     	;# 
  3386  0811                     	;# 
  3387  0812                     	;# 
  3388  0812                     	;# 
  3389  0813                     	;# 
  3390  0814                     	;# 
  3391  0815                     	;# 
  3392  0816                     	;# 
  3393  0817                     	;# 
  3394  0818                     	;# 
  3395  0819                     	;# 
  3396  081A                     	;# 
  3397  081A                     	;# 
  3398  081B                     	;# 
  3399  081C                     	;# 
  3400  081C                     	;# 
  3401  081D                     	;# 
  3402  088C                     	;# 
  3403  088D                     	;# 
  3404  088E                     	;# 
  3405  088F                     	;# 
  3406  088F                     	;# 
  3407  0890                     	;# 
  3408  0891                     	;# 
  3409  0892                     	;# 
  3410  0893                     	;# 
  3411  0893                     	;# 
  3412  0894                     	;# 
  3413  0895                     	;# 
  3414  0896                     	;# 
  3415  0897                     	;# 
  3416  0897                     	;# 
  3417  0898                     	;# 
  3418  0899                     	;# 
  3419  0D8C                     	;# 
  3420  0D8C                     	;# 
  3421  0D8D                     	;# 
  3422  0D8E                     	;# 
  3423  0D8F                     	;# 
  3424  0D8F                     	;# 
  3425  0D90                     	;# 
  3426  0D91                     	;# 
  3427  0D92                     	;# 
  3428  0D92                     	;# 
  3429  0D93                     	;# 
  3430  0D94                     	;# 
  3431  0D95                     	;# 
  3432  0D95                     	;# 
  3433  0D96                     	;# 
  3434  0D97                     	;# 
  3435  0D98                     	;# 
  3436  0D99                     	;# 
  3437  0D9A                     	;# 
  3438  0D9B                     	;# 
  3439  0D9C                     	;# 
  3440  0D9D                     	;# 
  3441  0D9E                     	;# 
  3442  0D9E                     	;# 
  3443  0D9F                     	;# 
  3444  0DA0                     	;# 
  3445  0DA1                     	;# 
  3446  0DA1                     	;# 
  3447  0DA2                     	;# 
  3448  0DA3                     	;# 
  3449  0DA4                     	;# 
  3450  0DA4                     	;# 
  3451  0DA5                     	;# 
  3452  0DA6                     	;# 
  3453  0DA7                     	;# 
  3454  0DA7                     	;# 
  3455  0DA8                     	;# 
  3456  0DA9                     	;# 
  3457  0DAA                     	;# 
  3458  0DAB                     	;# 
  3459  0DAC                     	;# 
  3460  0DAD                     	;# 
  3461  0DAE                     	;# 
  3462  0DAF                     	;# 
  3463  0E0F                     	;# 
  3464  0E10                     	;# 
  3465  0E11                     	;# 
  3466  0E12                     	;# 
  3467  0E13                     	;# 
  3468  0E14                     	;# 
  3469  0E15                     	;# 
  3470  0E16                     	;# 
  3471  0E17                     	;# 
  3472  0E18                     	;# 
  3473  0E19                     	;# 
  3474  0E1A                     	;# 
  3475  0E1B                     	;# 
  3476  0E1C                     	;# 
  3477  0E1D                     	;# 
  3478  0E1E                     	;# 
  3479  0E1F                     	;# 
  3480  0E20                     	;# 
  3481  0E21                     	;# 
  3482  0E22                     	;# 
  3483  0E23                     	;# 
  3484  0E24                     	;# 
  3485  0E25                     	;# 
  3486  0E26                     	;# 
  3487  0E27                     	;# 
  3488  0E28                     	;# 
  3489  0E29                     	;# 
  3490  0E2A                     	;# 
  3491  0E2B                     	;# 
  3492  0E2C                     	;# 
  3493  0E2D                     	;# 
  3494  0E2E                     	;# 
  3495  0E90                     	;# 
  3496  0E91                     	;# 
  3497  0E92                     	;# 
  3498  0E94                     	;# 
  3499  0E95                     	;# 
  3500  0E9C                     	;# 
  3501  0E9D                     	;# 
  3502  0E9E                     	;# 
  3503  0E9F                     	;# 
  3504  0EA0                     	;# 
  3505  0EA1                     	;# 
  3506  0EA2                     	;# 
  3507  0EA3                     	;# 
  3508  0EA4                     	;# 
  3509  0EA5                     	;# 
  3510  0EA6                     	;# 
  3511  0EA7                     	;# 
  3512  0F0F                     	;# 
  3513  0F10                     	;# 
  3514  0F11                     	;# 
  3515  0F12                     	;# 
  3516  0F13                     	;# 
  3517  0F14                     	;# 
  3518  0F15                     	;# 
  3519  0F16                     	;# 
  3520  0F17                     	;# 
  3521  0F18                     	;# 
  3522  0F19                     	;# 
  3523  0F1A                     	;# 
  3524  0F1B                     	;# 
  3525  0F1C                     	;# 
  3526  0F1D                     	;# 
  3527  0F1E                     	;# 
  3528  0F1F                     	;# 
  3529  0F20                     	;# 
  3530  0F21                     	;# 
  3531  0F22                     	;# 
  3532  0F23                     	;# 
  3533  0F24                     	;# 
  3534  0F25                     	;# 
  3535  0F26                     	;# 
  3536  0F27                     	;# 
  3537  0F28                     	;# 
  3538  0F29                     	;# 
  3539  0F2A                     	;# 
  3540  0F2B                     	;# 
  3541  0F2C                     	;# 
  3542  0F2D                     	;# 
  3543  0F2E                     	;# 
  3544  0F2F                     	;# 
  3545  0F30                     	;# 
  3546  0F31                     	;# 
  3547  0F32                     	;# 
  3548  0F33                     	;# 
  3549  0F34                     	;# 
  3550  0F35                     	;# 
  3551  0F36                     	;# 
  3552  0F37                     	;# 
  3553  0FE4                     	;# 
  3554  0FE5                     	;# 
  3555  0FE6                     	;# 
  3556  0FE7                     	;# 
  3557  0FE8                     	;# 
  3558  0FE9                     	;# 
  3559  0FEA                     	;# 
  3560  0FEB                     	;# 
  3561  0FED                     	;# 
  3562  0FEE                     	;# 
  3563  0FEF                     	;# 
  3564  0000                     	;# 
  3565  0001                     	;# 
  3566  0002                     	;# 
  3567  0003                     	;# 
  3568  0004                     	;# 
  3569  0005                     	;# 
  3570  0006                     	;# 
  3571  0007                     	;# 
  3572  0008                     	;# 
  3573  0009                     	;# 
  3574  000A                     	;# 
  3575  000B                     	;# 
  3576  000C                     	;# 
  3577  000D                     	;# 
  3578  000E                     	;# 
  3579  0010                     	;# 
  3580  0011                     	;# 
  3581  0012                     	;# 
  3582  0013                     	;# 
  3583  0014                     	;# 
  3584  0015                     	;# 
  3585  0016                     	;# 
  3586  0016                     	;# 
  3587  0017                     	;# 
  3588  0018                     	;# 
  3589  0019                     	;# 
  3590  001A                     	;# 
  3591  001A                     	;# 
  3592  001B                     	;# 
  3593  001B                     	;# 
  3594  001C                     	;# 
  3595  001D                     	;# 
  3596  001E                     	;# 
  3597  001F                     	;# 
  3598  008C                     	;# 
  3599  008D                     	;# 
  3600  008E                     	;# 
  3601  0090                     	;# 
  3602  0091                     	;# 
  3603  0092                     	;# 
  3604  0093                     	;# 
  3605  0094                     	;# 
  3606  0095                     	;# 
  3607  0096                     	;# 
  3608  0098                     	;# 
  3609  0099                     	;# 
  3610  009A                     	;# 
  3611  009B                     	;# 
  3612  009B                     	;# 
  3613  009C                     	;# 
  3614  009D                     	;# 
  3615  009E                     	;# 
  3616  009F                     	;# 
  3617  010C                     	;# 
  3618  010D                     	;# 
  3619  010E                     	;# 
  3620  0111                     	;# 
  3621  0112                     	;# 
  3622  0113                     	;# 
  3623  0114                     	;# 
  3624  0115                     	;# 
  3625  0116                     	;# 
  3626  0117                     	;# 
  3627  0118                     	;# 
  3628  0119                     	;# 
  3629  011C                     	;# 
  3630  018C                     	;# 
  3631  018D                     	;# 
  3632  018E                     	;# 
  3633  0191                     	;# 
  3634  0191                     	;# 
  3635  0192                     	;# 
  3636  0193                     	;# 
  3637  0193                     	;# 
  3638  0194                     	;# 
  3639  0195                     	;# 
  3640  0196                     	;# 
  3641  0197                     	;# 
  3642  0199                     	;# 
  3643  0199                     	;# 
  3644  0199                     	;# 
  3645  019A                     	;# 
  3646  019A                     	;# 
  3647  019A                     	;# 
  3648  019B                     	;# 
  3649  019B                     	;# 
  3650  019B                     	;# 
  3651  019B                     	;# 
  3652  019B                     	;# 
  3653  019C                     	;# 
  3654  019C                     	;# 
  3655  019C                     	;# 
  3656  019D                     	;# 
  3657  019D                     	;# 
  3658  019D                     	;# 
  3659  019E                     	;# 
  3660  019E                     	;# 
  3661  019E                     	;# 
  3662  019F                     	;# 
  3663  019F                     	;# 
  3664  019F                     	;# 
  3665  019F                     	;# 
  3666  019F                     	;# 
  3667  020C                     	;# 
  3668  020D                     	;# 
  3669  020E                     	;# 
  3670  0211                     	;# 
  3671  0211                     	;# 
  3672  0212                     	;# 
  3673  0212                     	;# 
  3674  0213                     	;# 
  3675  0213                     	;# 
  3676  0214                     	;# 
  3677  0214                     	;# 
  3678  0215                     	;# 
  3679  0215                     	;# 
  3680  0215                     	;# 
  3681  0215                     	;# 
  3682  0216                     	;# 
  3683  0216                     	;# 
  3684  0217                     	;# 
  3685  0217                     	;# 
  3686  028C                     	;# 
  3687  028D                     	;# 
  3688  028E                     	;# 
  3689  0291                     	;# 
  3690  0291                     	;# 
  3691  0292                     	;# 
  3692  0293                     	;# 
  3693  0294                     	;# 
  3694  0298                     	;# 
  3695  0298                     	;# 
  3696  0299                     	;# 
  3697  029A                     	;# 
  3698  029B                     	;# 
  3699  029E                     	;# 
  3700  030C                     	;# 
  3701  030D                     	;# 
  3702  030E                     	;# 
  3703  038C                     	;# 
  3704  038D                     	;# 
  3705  038E                     	;# 
  3706  0391                     	;# 
  3707  0392                     	;# 
  3708  0393                     	;# 
  3709  0394                     	;# 
  3710  0395                     	;# 
  3711  0396                     	;# 
  3712  0397                     	;# 
  3713  0398                     	;# 
  3714  0399                     	;# 
  3715  040E                     	;# 
  3716  0413                     	;# 
  3717  0413                     	;# 
  3718  0414                     	;# 
  3719  0414                     	;# 
  3720  0415                     	;# 
  3721  0416                     	;# 
  3722  0417                     	;# 
  3723  0418                     	;# 
  3724  041A                     	;# 
  3725  041A                     	;# 
  3726  041B                     	;# 
  3727  041B                     	;# 
  3728  041C                     	;# 
  3729  041D                     	;# 
  3730  041E                     	;# 
  3731  041F                     	;# 
  3732  0493                     	;# 
  3733  0494                     	;# 
  3734  0495                     	;# 
  3735  0496                     	;# 
  3736  049A                     	;# 
  3737  049B                     	;# 
  3738  049C                     	;# 
  3739  049D                     	;# 
  3740  058C                     	;# 
  3741  058C                     	;# 
  3742  058D                     	;# 
  3743  058E                     	;# 
  3744  058E                     	;# 
  3745  058F                     	;# 
  3746  0590                     	;# 
  3747  0590                     	;# 
  3748  0591                     	;# 
  3749  0592                     	;# 
  3750  0592                     	;# 
  3751  0593                     	;# 
  3752  0594                     	;# 
  3753  0594                     	;# 
  3754  0595                     	;# 
  3755  0596                     	;# 
  3756  0596                     	;# 
  3757  0597                     	;# 
  3758  0598                     	;# 
  3759  0599                     	;# 
  3760  059A                     	;# 
  3761  059B                     	;# 
  3762  059B                     	;# 
  3763  059C                     	;# 
  3764  059D                     	;# 
  3765  060C                     	;# 
  3766  060C                     	;# 
  3767  060D                     	;# 
  3768  060E                     	;# 
  3769  060F                     	;# 
  3770  060F                     	;# 
  3771  0610                     	;# 
  3772  0611                     	;# 
  3773  0612                     	;# 
  3774  0613                     	;# 
  3775  0614                     	;# 
  3776  0617                     	;# 
  3777  0618                     	;# 
  3778  0619                     	;# 
  3779  061A                     	;# 
  3780  061B                     	;# 
  3781  061C                     	;# 
  3782  0691                     	;# 
  3783  0692                     	;# 
  3784  0693                     	;# 
  3785  0694                     	;# 
  3786  0695                     	;# 
  3787  0696                     	;# 
  3788  0697                     	;# 
  3789  0699                     	;# 
  3790  069A                     	;# 
  3791  0711                     	;# 
  3792  0712                     	;# 
  3793  0713                     	;# 
  3794  0714                     	;# 
  3795  0715                     	;# 
  3796  0718                     	;# 
  3797  0718                     	;# 
  3798  0719                     	;# 
  3799  071A                     	;# 
  3800  071A                     	;# 
  3801  071B                     	;# 
  3802  071C                     	;# 
  3803  071D                     	;# 
  3804  0791                     	;# 
  3805  0791                     	;# 
  3806  0792                     	;# 
  3807  0793                     	;# 
  3808  0793                     	;# 
  3809  0794                     	;# 
  3810  0795                     	;# 
  3811  0795                     	;# 
  3812  0796                     	;# 
  3813  0797                     	;# 
  3814  0797                     	;# 
  3815  0798                     	;# 
  3816  0799                     	;# 
  3817  079A                     	;# 
  3818  080C                     	;# 
  3819  080C                     	;# 
  3820  080D                     	;# 
  3821  080E                     	;# 
  3822  080E                     	;# 
  3823  080F                     	;# 
  3824  0810                     	;# 
  3825  0810                     	;# 
  3826  0811                     	;# 
  3827  0812                     	;# 
  3828  0812                     	;# 
  3829  0813                     	;# 
  3830  0814                     	;# 
  3831  0815                     	;# 
  3832  0816                     	;# 
  3833  0817                     	;# 
  3834  0818                     	;# 
  3835  0819                     	;# 
  3836  081A                     	;# 
  3837  081A                     	;# 
  3838  081B                     	;# 
  3839  081C                     	;# 
  3840  081C                     	;# 
  3841  081D                     	;# 
  3842  088C                     	;# 
  3843  088D                     	;# 
  3844  088E                     	;# 
  3845  088F                     	;# 
  3846  088F                     	;# 
  3847  0890                     	;# 
  3848  0891                     	;# 
  3849  0892                     	;# 
  3850  0893                     	;# 
  3851  0893                     	;# 
  3852  0894                     	;# 
  3853  0895                     	;# 
  3854  0896                     	;# 
  3855  0897                     	;# 
  3856  0897                     	;# 
  3857  0898                     	;# 
  3858  0899                     	;# 
  3859  0D8C                     	;# 
  3860  0D8C                     	;# 
  3861  0D8D                     	;# 
  3862  0D8E                     	;# 
  3863  0D8F                     	;# 
  3864  0D8F                     	;# 
  3865  0D90                     	;# 
  3866  0D91                     	;# 
  3867  0D92                     	;# 
  3868  0D92                     	;# 
  3869  0D93                     	;# 
  3870  0D94                     	;# 
  3871  0D95                     	;# 
  3872  0D95                     	;# 
  3873  0D96                     	;# 
  3874  0D97                     	;# 
  3875  0D98                     	;# 
  3876  0D99                     	;# 
  3877  0D9A                     	;# 
  3878  0D9B                     	;# 
  3879  0D9C                     	;# 
  3880  0D9D                     	;# 
  3881  0D9E                     	;# 
  3882  0D9E                     	;# 
  3883  0D9F                     	;# 
  3884  0DA0                     	;# 
  3885  0DA1                     	;# 
  3886  0DA1                     	;# 
  3887  0DA2                     	;# 
  3888  0DA3                     	;# 
  3889  0DA4                     	;# 
  3890  0DA4                     	;# 
  3891  0DA5                     	;# 
  3892  0DA6                     	;# 
  3893  0DA7                     	;# 
  3894  0DA7                     	;# 
  3895  0DA8                     	;# 
  3896  0DA9                     	;# 
  3897  0DAA                     	;# 
  3898  0DAB                     	;# 
  3899  0DAC                     	;# 
  3900  0DAD                     	;# 
  3901  0DAE                     	;# 
  3902  0DAF                     	;# 
  3903  0E0F                     	;# 
  3904  0E10                     	;# 
  3905  0E11                     	;# 
  3906  0E12                     	;# 
  3907  0E13                     	;# 
  3908  0E14                     	;# 
  3909  0E15                     	;# 
  3910  0E16                     	;# 
  3911  0E17                     	;# 
  3912  0E18                     	;# 
  3913  0E19                     	;# 
  3914  0E1A                     	;# 
  3915  0E1B                     	;# 
  3916  0E1C                     	;# 
  3917  0E1D                     	;# 
  3918  0E1E                     	;# 
  3919  0E1F                     	;# 
  3920  0E20                     	;# 
  3921  0E21                     	;# 
  3922  0E22                     	;# 
  3923  0E23                     	;# 
  3924  0E24                     	;# 
  3925  0E25                     	;# 
  3926  0E26                     	;# 
  3927  0E27                     	;# 
  3928  0E28                     	;# 
  3929  0E29                     	;# 
  3930  0E2A                     	;# 
  3931  0E2B                     	;# 
  3932  0E2C                     	;# 
  3933  0E2D                     	;# 
  3934  0E2E                     	;# 
  3935  0E90                     	;# 
  3936  0E91                     	;# 
  3937  0E92                     	;# 
  3938  0E94                     	;# 
  3939  0E95                     	;# 
  3940  0E9C                     	;# 
  3941  0E9D                     	;# 
  3942  0E9E                     	;# 
  3943  0E9F                     	;# 
  3944  0EA0                     	;# 
  3945  0EA1                     	;# 
  3946  0EA2                     	;# 
  3947  0EA3                     	;# 
  3948  0EA4                     	;# 
  3949  0EA5                     	;# 
  3950  0EA6                     	;# 
  3951  0EA7                     	;# 
  3952  0F0F                     	;# 
  3953  0F10                     	;# 
  3954  0F11                     	;# 
  3955  0F12                     	;# 
  3956  0F13                     	;# 
  3957  0F14                     	;# 
  3958  0F15                     	;# 
  3959  0F16                     	;# 
  3960  0F17                     	;# 
  3961  0F18                     	;# 
  3962  0F19                     	;# 
  3963  0F1A                     	;# 
  3964  0F1B                     	;# 
  3965  0F1C                     	;# 
  3966  0F1D                     	;# 
  3967  0F1E                     	;# 
  3968  0F1F                     	;# 
  3969  0F20                     	;# 
  3970  0F21                     	;# 
  3971  0F22                     	;# 
  3972  0F23                     	;# 
  3973  0F24                     	;# 
  3974  0F25                     	;# 
  3975  0F26                     	;# 
  3976  0F27                     	;# 
  3977  0F28                     	;# 
  3978  0F29                     	;# 
  3979  0F2A                     	;# 
  3980  0F2B                     	;# 
  3981  0F2C                     	;# 
  3982  0F2D                     	;# 
  3983  0F2E                     	;# 
  3984  0F2F                     	;# 
  3985  0F30                     	;# 
  3986  0F31                     	;# 
  3987  0F32                     	;# 
  3988  0F33                     	;# 
  3989  0F34                     	;# 
  3990  0F35                     	;# 
  3991  0F36                     	;# 
  3992  0F37                     	;# 
  3993  0FE4                     	;# 
  3994  0FE5                     	;# 
  3995  0FE6                     	;# 
  3996  0FE7                     	;# 
  3997  0FE8                     	;# 
  3998  0FE9                     	;# 
  3999  0FEA                     	;# 
  4000  0FEB                     	;# 
  4001  0FED                     	;# 
  4002  0FEE                     	;# 
  4003  0FEF                     	;_adcBuffer
  4004                           
  4005                           	psect	stringtext
  4006  0378                     __pstringtext:	
  4007  0378                     _iirCoef_b:	
  4008  0378  3422               	retlw	34
  4009  0379  342B               	retlw	43
  4010  037A  34DB               	retlw	219
  4011  037B  3400               	retlw	0
  4012  037C  3422               	retlw	34
  4013  037D  342B               	retlw	43
  4014  037E                     __end_of_iirCoef_b:	
  4015  037E                     _iirCoef_a:	
  4016  037E  34A2               	retlw	162
  4017  037F  34E5               	retlw	229
  4018  0380  34F5               	retlw	245
  4019  0381  3448               	retlw	72
  4020  0382                     __end_of_iirCoef_a:	
  4021                           
  4022                           	psect	nvCOMMON
  4023  0076                     __pnvCOMMON:	
  4024  0076                     _timer1ReloadVal:	
  4025  0076                     	ds	2
  4026  0004                     _FSR0	set	4
  4027  000B                     _INTCONbits	set	11
  4028  0010                     _PIR1bits	set	16
  4029  0014                     _PIR5bits	set	20
  4030  0018                     _T1CON	set	24
  4031  0018                     _T1CONbits	set	24
  4032  0019                     _T1GCON	set	25
  4033  0019                     _T1GCONbits	set	25
  4034  0017                     _TMR1H	set	23
  4035  0016                     _TMR1L	set	22
  4036  009D                     _ADCON0	set	157
  4037  009D                     _ADCON0bits	set	157
  4038  009E                     _ADCON1	set	158
  4039  009F                     _ADCON2	set	159
  4040  009C                     _ADRESH	set	156
  4041  009B                     _ADRESL	set	155
  4042  0095                     _OPTION_REGbits	set	149
  4043  0099                     _OSCCON	set	153
  4044  009A                     _OSCSTAT	set	154
  4045  0098                     _OSCTUNE	set	152
  4046  0090                     _PIE1bits	set	144
  4047  008C                     _TRISA	set	140
  4048  008D                     _TRISB	set	141
  4049  008E                     _TRISC	set	142
  4050  0118                     _DAC1CON0	set	280
  4051  0119                     _DAC1CON1	set	281
  4052  010C                     _LATA	set	268
  4053  010D                     _LATB	set	269
  4054  010E                     _LATC	set	270
  4055  018C                     _ANSELA	set	396
  4056  018D                     _ANSELB	set	397
  4057  018E                     _ANSELC	set	398
  4058  020D                     _WPUB	set	525
  4059  020E                     _WPUC	set	526
  4060  058F                     _PID1INH	set	1423
  4061  058E                     _PID1INL	set	1422
  4062  0591                     _PID1K1H	set	1425
  4063  0590                     _PID1K1L	set	1424
  4064  0599                     _PID1OUTHH	set	1433
  4065  0598                     _PID1OUTHL	set	1432
  4066  0597                     _PID1OUTLH	set	1431
  4067  0596                     _PID1OUTLL	set	1430
  4068  059A                     _PID1OUTU	set	1434
  4069  058D                     _PID1SETH	set	1421
  4070  058C                     _PID1SETL	set	1420
  4071  0614                     _PID1CON	set	1556
  4072  0614                     _PID1CONbits	set	1556
  4073                           
  4074                           ; #config settings
  4075  0000                     
  4076                           	psect	cinit
  4077  0022                     start_initialization:	
  4078  0022                     __initialization:		;BIGRAM
  4079                           
  4080                           ; Clear objects allocated to BIGRAM
  4081  0022  30DC               	movlw	low (0+8668)
  4082  0023  0084               	movwf	4
  4083  0024  3021               	movlw	high (0+8668)
  4084  0025  0085               	movwf	5
  4085  0026  3004               	movlw	4
  4086  0027  00FE               	movwf	btemp
  4087  0028  3002               	movlw	2
  4088  0029  00FF               	movwf	btemp+1
  4089  002A  3183  236C  3180   	fcall	clear_ram0
  4090                           
  4091                           ; Clear objects allocated to COMMON
  4092  002D  01F8               	clrf	__pbssCOMMON& (0+127)
  4093  002E  01F9               	clrf	(__pbssCOMMON+1)& (0+127)
  4094                           
  4095                           ; Clear objects allocated to BANK0
  4096  002F  3043               	movlw	low __pbssBANK0
  4097  0030  0084               	movwf	4
  4098  0031  3000               	movlw	high __pbssBANK0
  4099  0032  0085               	movwf	5
  4100  0033  301B               	movlw	27
  4101  0034  00FE               	movwf	btemp
  4102  0035  3000               	movlw	0
  4103  0036  00FF               	movwf	btemp+1
  4104  0037  3183  236C         	fcall	clear_ram0
  4105  0039                     end_of_initialization:	
  4106                           ;End of C runtime variable initialization code
  4107                           
  4108  0039                     __end_of__initialization:	
  4109  0039  107E               	bcf	int$flags,0	;clear compiler interrupt flag (level 1)
  4110  003A  0020               	movlb	0
  4111  003B  3180  283D         	ljmp	_main	;jump to C main() function
  4112                           
  4113                           	psect	bssCOMMON
  4114  0078                     __pbssCOMMON:	
  4115  0078                     _outOfFilters:	
  4116  0078                     	ds	1
  4117  0079                     _timeQuanta:	
  4118  0079                     	ds	1
  4119                           
  4120                           	psect	bssBANK0
  4121  0043                     __pbssBANK0:	
  4122  0043                     _tickCounter:	
  4123  0043                     	ds	2
  4124  0045                     _iirStructure:	
  4125  0045                     	ds	1
  4126  0046                     _shouldCopy:	
  4127  0046                     	ds	1
  4128  0047                     _shouldFilter:	
  4129  0047                     	ds	1
  4130  0048                     _filterMemPool:	
  4131  0048                     	ds	22
  4132                           
  4133                           	psect	clrtext
  4134  036C                     clear_ram0:	
  4135                           ;	Called with FSR0 containing the base address, and
  4136                           ;	btemp/btemp+1 has the size to clear
  4137                           
  4138  036C  0064               	clrwdt	;clear the watchdog before getting into this loop
  4139  036D                     clrloop0:	
  4140  036D  0180               	clrf	0	;clear RAM location pointed to by FSR
  4141  036E  3101               	addfsr 0,1
  4142  036F  3001               	movlw	1
  4143  0370  02FE               	subwf	126,f
  4144  0371  3000               	movlw	0
  4145  0372  3BFF               	subwfb	127,f
  4146  0373  087F               	movf	127,w
  4147  0374  047E               	iorwf	126,w
  4148  0375  1903               	btfsc	3,2
  4149  0376  3400               	retlw	0	;all done for this memory range, return
  4150  0377  2B6D               	goto	clrloop0	;have we reached the end yet?
  4151                           
  4152                           	psect	cstackCOMMON
  4153  0070                     __pcstackCOMMON:	
  4154  0070                     ?_SignalProcessEngine:	
  4155  0070                     ?_OSCILLATOR_Initialize:	
  4156                           ; 0 bytes @ 0x0
  4157                           
  4158  0070                     ?_DAC1_Initialize:	
  4159                           ; 0 bytes @ 0x0
  4160                           
  4161  0070                     ?_MATHACC_Initialize:	
  4162                           ; 0 bytes @ 0x0
  4163                           
  4164  0070                     ?_TMR1_Initialize:	
  4165                           ; 0 bytes @ 0x0
  4166                           
  4167  0070                     ?_TMR1_StartTimer:	
  4168                           ; 0 bytes @ 0x0
  4169                           
  4170  0070                     ?_UpdateTick:	
  4171                           ; 0 bytes @ 0x0
  4172                           
  4173  0070                     ??_UpdateTick:	
  4174                           ; 0 bytes @ 0x0
  4175                           
  4176  0070                     ?_iirFilter_2nd_Ord:	
  4177                           ; 0 bytes @ 0x0
  4178                           
  4179  0070                     ?_ADC1_Initialize:	
  4180                           ; 0 bytes @ 0x0
  4181                           
  4182  0070                     ?_ADC1_StartConversion:	
  4183                           ; 0 bytes @ 0x0
  4184                           
  4185  0070                     ??_ADC1_StartConversion:	
  4186                           ; 0 bytes @ 0x0
  4187                           
  4188  0070                     ?_ADC1_ISR:	
  4189                           ; 0 bytes @ 0x0
  4190                           
  4191  0070                     ?_PIN_MANAGER_Initialize:	
  4192                           ; 0 bytes @ 0x0
  4193                           
  4194  0070                     ?_SYSTEM_Initialize:	
  4195                           ; 0 bytes @ 0x0
  4196                           
  4197  0070                     ?_TMR1_ISR:	
  4198                           ; 0 bytes @ 0x0
  4199                           
  4200  0070                     ?_DAC1_SetOutput:	
  4201                           ; 0 bytes @ 0x0
  4202                           
  4203  0070                     ??_DAC1_SetOutput:	
  4204                           ; 0 bytes @ 0x0
  4205                           
  4206  0070                     ?_INTERRUPT_InterruptManager:	
  4207                           ; 0 bytes @ 0x0
  4208                           
  4209  0070                     ?_main:	
  4210                           ; 0 bytes @ 0x0
  4211                           
  4212  0070                     ?_ADC1_GetConversionResult:	
  4213                           ; 0 bytes @ 0x0
  4214                           
  4215  0070                     DAC1_SetOutput@inputData:	
  4216                           ; 2 bytes @ 0x0
  4217                           
  4218                           
  4219                           ; 1 bytes @ 0x0
  4220  0070                     	ds	1
  4221  0071                     ADC1_StartConversion@channel:	
  4222                           
  4223                           ; 1 bytes @ 0x1
  4224  0071                     	ds	1
  4225  0072                     ??_ADC1_GetConversionResult:	
  4226  0072                     ??_TMR1_ISR:	
  4227                           ; 0 bytes @ 0x2
  4228                           
  4229  0072                     SignalProcessEngine@dacResult:	
  4230                           ; 0 bytes @ 0x2
  4231                           
  4232                           
  4233                           ; 1 bytes @ 0x2
  4234  0072                     	ds	1
  4235  0073                     ??_ADC1_ISR:	
  4236  0073                     ??_INTERRUPT_InterruptManager:	
  4237                           ; 0 bytes @ 0x3
  4238                           
  4239                           
  4240                           ; 0 bytes @ 0x3
  4241  0073                     	ds	1
  4242  0074                     ??_OSCILLATOR_Initialize:	
  4243  0074                     ??_DAC1_Initialize:	
  4244                           ; 0 bytes @ 0x4
  4245                           
  4246  0074                     ??_MATHACC_Initialize:	
  4247                           ; 0 bytes @ 0x4
  4248                           
  4249  0074                     ??_TMR1_Initialize:	
  4250                           ; 0 bytes @ 0x4
  4251                           
  4252  0074                     ??_TMR1_StartTimer:	
  4253                           ; 0 bytes @ 0x4
  4254                           
  4255  0074                     ??_iirInit:	
  4256                           ; 0 bytes @ 0x4
  4257                           
  4258  0074                     ?_iirDoFilter:	
  4259                           ; 0 bytes @ 0x4
  4260                           
  4261  0074                     ??_iirGetOutValue:	
  4262                           ; 0 bytes @ 0x4
  4263                           
  4264  0074                     ??_iirFilter_2nd_Ord:	
  4265                           ; 0 bytes @ 0x4
  4266                           
  4267  0074                     ??_ADC1_Initialize:	
  4268                           ; 0 bytes @ 0x4
  4269                           
  4270  0074                     ??_PIN_MANAGER_Initialize:	
  4271                           ; 0 bytes @ 0x4
  4272                           
  4273  0074                     ??_SYSTEM_Initialize:	
  4274                           ; 0 bytes @ 0x4
  4275                           
  4276  0074                     iirGetOutValue@f:	
  4277                           ; 0 bytes @ 0x4
  4278                           
  4279  0074                     iirDoFilter@input:	
  4280                           ; 1 bytes @ 0x4
  4281                           
  4282                           
  4283                           ; 2 bytes @ 0x4
  4284  0074                     	ds	1
  4285  0075                     iirInit@f:	
  4286                           
  4287                           ; 1 bytes @ 0x5
  4288  0075                     	ds	1
  4289  0076                     ??_iirDoFilter:	
  4290                           
  4291                           	psect	cstackBANK0
  4292  0020                     __pcstackBANK0:	
  4293                           ; 0 bytes @ 0x6
  4294                           
  4295  0020                     ??_SignalProcessEngine:	
  4296                           
  4297                           ; 0 bytes @ 0x0
  4298  0020                     	ds	18
  4299  0032                     ?_iirInit:	
  4300  0032                     ?_iirGetOutValue:	
  4301                           ; 1 bytes @ 0x12
  4302                           
  4303  0032                     iirInit@a_coeffs:	
  4304                           ; 2 bytes @ 0x12
  4305                           
  4306  0032                     iirDoFilter@__fsrTmp:	
  4307                           ; 2 bytes @ 0x12
  4308                           
  4309                           
  4310                           ; 2 bytes @ 0x12
  4311  0032                     	ds	2
  4312  0034                     iirDoFilter@f:	
  4313  0034                     iirInit@b_coeffs:	
  4314                           ; 1 bytes @ 0x14
  4315                           
  4316                           
  4317                           ; 2 bytes @ 0x14
  4318  0034                     	ds	2
  4319  0036                     ??_main:	
  4320                           
  4321                           ; 0 bytes @ 0x16
  4322  0036                     	ds	8
  4323  003E                     main@timeCurrent:	
  4324                           
  4325                           ; 2 bytes @ 0x1E
  4326  003E                     	ds	2
  4327  0040                     main@inactiveBuffer:	
  4328                           
  4329                           ; 1 bytes @ 0x20
  4330  0040                     	ds	1
  4331  0041                     main@i:	
  4332                           
  4333                           ; 2 bytes @ 0x21
  4334  0041                     	ds	2
  4335                           
  4336                           	psect	maintext
  4337  003D                     __pmaintext:	
  4338 ;;
  4339 ;;Main: autosize = 0, tempsize = 8, incstack = 0, save=0
  4340 ;;
  4341 ;; *************** function _main *****************
  4342 ;; Defined at:
  4343 ;;		line 170 in file "main.c"
  4344 ;; Parameters:    Size  Location     Type
  4345 ;;		None
  4346 ;; Auto vars:     Size  Location     Type
  4347 ;;  inactiveBuff    1   32[BANK0 ] unsigned char 
  4348 ;;  i               2   33[BANK0 ] unsigned int 
  4349 ;;  timeCurrent     2   30[BANK0 ] unsigned int 
  4350 ;; Return value:  Size  Location     Type
  4351 ;;		None               void
  4352 ;; Registers used:
  4353 ;;		wreg, fsr0l, fsr0h, fsr1l, fsr1h, fsr1l, fsr1h, status,2, status,0, pclath, cstack
  4354 ;; Tracked objects:
  4355 ;;		On entry : B1F/0
  4356 ;;		On exit  : 0/0
  4357 ;;		Unchanged: 0/0
  4358 ;; Data sizes:     COMMON   BANK0   BANK1   BANK2   BANK3   BANK4   BANK5   BANK6   BANK7   BANK8   BANK9  BANK10  BANK1
      +1  BANK12
  4359 ;;      Params:         0       0       0       0       0       0       0       0       0       0       0       0       
      +0       0
  4360 ;;      Locals:         0       5       0       0       0       0       0       0       0       0       0       0       
      +0       0
  4361 ;;      Temps:          0       8       0       0       0       0       0       0       0       0       0       0       
      +0       0
  4362 ;;      Totals:         0      13       0       0       0       0       0       0       0       0       0       0       
      +0       0
  4363 ;;Total ram usage:       13 bytes
  4364 ;; Hardware stack levels required when called:    7
  4365 ;; This function calls:
  4366 ;;		_SYSTEM_Initialize
  4367 ;;		_iirDoFilter
  4368 ;;		_iirGetOutValue
  4369 ;;		_iirInit
  4370 ;; This function is called by:
  4371 ;;		Startup code after reset
  4372 ;; This function uses a non-reentrant model
  4373 ;;
  4374                           
  4375                           
  4376                           ;psect for function _main
  4377  003D                     _main:	
  4378                           
  4379                           ;main.c: 172: uint16_t i = 0;
  4380                           
  4381                           ;incstack = 0
  4382                           ; Regs used in _main: [allreg]
  4383  003D  0020               	movlb	0	; select bank0
  4384  003E  01C1               	clrf	main@i
  4385  003F  01C2               	clrf	main@i+1
  4386                           
  4387                           ;main.c: 173: uint16_t timeCurrent = 0;
  4388  0040  01BE               	clrf	main@timeCurrent
  4389  0041  01BF               	clrf	main@timeCurrent+1
  4390                           
  4391                           ;main.c: 178: SYSTEM_Initialize();
  4392  0042  3183  231D  3180   	fcall	_SYSTEM_Initialize
  4393                           
  4394                           ;main.c: 183: TRISA &= ~(1 << 5);
  4395  0045  30DF               	movlw	223
  4396  0046  0020               	movlb	0	; select bank0
  4397  0047  00B6               	movwf	??_main
  4398  0048  0836               	movf	??_main,w
  4399  0049  0021               	movlb	1	; select bank1
  4400  004A  058C               	andwf	12,f	;volatile
  4401                           
  4402                           ;main.c: 184: LATA &= ~(1 << 5);
  4403  004B  30DF               	movlw	223
  4404  004C  0020               	movlb	0	; select bank0
  4405  004D  00B6               	movwf	??_main
  4406  004E  0836               	movf	??_main,w
  4407  004F  0022               	movlb	2	; select bank2
  4408  0050  058C               	andwf	12,f	;volatile
  4409                           
  4410                           ;main.c: 189: __builtin_memcpy(&adcBuffer,0,sizeof(ppbuf_t));
  4411  0051  30DC               	movlw	220
  4412  0052  0086               	movwf	6
  4413  0053  3021               	movlw	33
  4414  0054  0087               	movwf	7
  4415  0055  3000               	movlw	0
  4416  0056  0084               	movwf	4
  4417  0057  3000               	movlw	0
  4418  0058  0085               	movwf	5
  4419  0059  3002               	movlw	2
  4420  005A  0020               	movlb	0	; select bank0
  4421  005B  00B6               	movwf	??_main
  4422  005C  3001               	movlw	1
  4423  005D  00B7               	movwf	??_main+1
  4424  005E                     u58m0:	
  4425  005E  0012               	moviw fsr0++
  4426  005F  001E               	movwi fsr1++
  4427  0060  3001               	movlw	1
  4428  0061  02B6               	subwf	??_main,f
  4429  0062  3000               	movlw	0
  4430  0063  3BB7               	subwfb	??_main+1,f
  4431  0064  0837               	movf	??_main+1,w
  4432  0065  0436               	iorwf	??_main,w
  4433  0066  1D03               	btfss	3,2
  4434  0067  285E               	goto	u58m0
  4435                           
  4436                           ;main.c: 190: __builtin_memcpy(&dacBuffer,0,sizeof(ppbuf_t));
  4437  0068  30DE               	movlw	222
  4438  0069  0086               	movwf	6
  4439  006A  3022               	movlw	34
  4440  006B  0087               	movwf	7
  4441  006C  3000               	movlw	0
  4442  006D  0084               	movwf	4
  4443  006E  3000               	movlw	0
  4444  006F  0085               	movwf	5
  4445  0070  3002               	movlw	2
  4446  0071  0020               	movlb	0	; select bank0
  4447  0072  00B6               	movwf	??_main
  4448  0073  3001               	movlw	1
  4449  0074  00B7               	movwf	??_main+1
  4450  0075                     u59m0:	
  4451  0075  0012               	moviw fsr0++
  4452  0076  001E               	movwi fsr1++
  4453  0077  3001               	movlw	1
  4454  0078  02B6               	subwf	??_main,f
  4455  0079  3000               	movlw	0
  4456  007A  3BB7               	subwfb	??_main+1,f
  4457  007B  0837               	movf	??_main+1,w
  4458  007C  0436               	iorwf	??_main,w
  4459  007D  1D03               	btfss	3,2
  4460  007E  2875               	goto	u59m0
  4461                           
  4462                           ;main.c: 195: iirStructure = iirInit(&iirCoef_a[0],&iirCoef_b[0]);
  4463  007F  307E               	movlw	low (_iirCoef_a| (0+32768))
  4464  0080  0020               	movlb	0	; select bank0
  4465  0081  00B2               	movwf	iirInit@a_coeffs
  4466  0082  3083               	movlw	high (_iirCoef_a| (0+32768))
  4467  0083  00B3               	movwf	iirInit@a_coeffs+1
  4468  0084  3078               	movlw	low (_iirCoef_b| (0+32768))
  4469  0085  00B4               	movwf	iirInit@b_coeffs
  4470  0086  3083               	movlw	high (_iirCoef_b| (0+32768))
  4471  0087  00B5               	movwf	iirInit@b_coeffs+1
  4472  0088  3181  21F1  3180   	fcall	_iirInit
  4473  008B  0020               	movlb	0	; select bank0
  4474  008C  00B6               	movwf	??_main
  4475  008D  0836               	movf	??_main,w
  4476  008E  00C5               	movwf	_iirStructure
  4477                           
  4478                           ;main.c: 201: (INTCONbits.PEIE = 1);
  4479  008F  170B               	bsf	11,6	;volatile
  4480                           
  4481                           ;main.c: 202: (INTCONbits.GIE = 1);
  4482  0090  178B               	bsf	11,7	;volatile
  4483                           
  4484                           ;main.c: 207: timeCurrent = tickCounter;
  4485  0091  0844               	movf	_tickCounter+1,w
  4486  0092  00BF               	movwf	main@timeCurrent+1
  4487  0093  0843               	movf	_tickCounter,w
  4488  0094  00BE               	movwf	main@timeCurrent
  4489  0095                     l1357:	
  4490                           ;main.c: 210: for(;;)
  4491                           
  4492                           
  4493                           ;main.c: 211: {
  4494                           ;main.c: 216: if(shouldFilter == 1)
  4495  0095  0020               	movlb	0	; select bank0
  4496  0096  0347               	decf	_shouldFilter,w
  4497  0097  1D03               	btfss	3,2
  4498  0098  2917               	goto	l1381
  4499                           
  4500                           ;main.c: 217: {
  4501                           ;main.c: 219: uint8_t inactiveBuffer = (~adcBuffer.activeBuffer & 0x01);
  4502  0099  30DC               	movlw	220
  4503  009A  0086               	movwf	6
  4504  009B  3022               	movlw	34
  4505  009C  0087               	movwf	7
  4506  009D  0901               	comf	1,w
  4507  009E  3901               	andlw	1
  4508  009F  00B6               	movwf	??_main
  4509  00A0  0836               	movf	??_main,w
  4510  00A1  00C0               	movwf	main@inactiveBuffer
  4511                           
  4512                           ;main.c: 224: shouldFilter = 0;
  4513  00A2  01C7               	clrf	_shouldFilter
  4514                           
  4515                           ;main.c: 230: for(i = 0; i < 64; i++)
  4516  00A3  01C1               	clrf	main@i
  4517  00A4  01C2               	clrf	main@i+1
  4518  00A5  3000               	movlw	0
  4519  00A6  0242               	subwf	main@i+1,w
  4520  00A7  3040               	movlw	64
  4521  00A8  1903               	skipnz
  4522  00A9  0241               	subwf	main@i,w
  4523  00AA  1803               	btfsc	3,0
  4524  00AB  2917               	goto	l1381
  4525  00AC                     l1369:	
  4526                           
  4527                           ;main.c: 231: {
  4528                           ;main.c: 237: iirDoFilter(iirStructure, adcBuffer.pingpongBuffer[inactiveBuffer][i]);
  4529  00AC  0842               	movf	main@i+1,w
  4530  00AD  00B7               	movwf	??_main+1
  4531  00AE  0841               	movf	main@i,w
  4532  00AF  00B6               	movwf	??_main
  4533  00B0  35B6               	lslf	??_main,f
  4534  00B1  0DB7               	rlf	??_main+1,f
  4535  00B2  0840               	movf	main@inactiveBuffer,w
  4536  00B3  00B8               	movwf	??_main+2
  4537  00B4  01B9               	clrf	??_main+3
  4538  00B5  3007               	movlw	7
  4539  00B6                     u625:	
  4540  00B6  35B8               	lslf	??_main+2,f
  4541  00B7  0DB9               	rlf	??_main+3,f
  4542  00B8  0B89               	decfsz	9,f
  4543  00B9  28B6               	goto	u625
  4544  00BA  30DC               	movlw	220
  4545  00BB  00BA               	movwf	??_main+4
  4546  00BC  3021               	movlw	33
  4547  00BD  00BB               	movwf	??_main+5
  4548  00BE  0838               	movf	??_main+2,w
  4549  00BF  073A               	addwf	??_main+4,w
  4550  00C0  00BC               	movwf	??_main+6
  4551  00C1  0839               	movf	??_main+3,w
  4552  00C2  3D3B               	addwfc	??_main+5,w
  4553  00C3  00BD               	movwf	??_main+7
  4554  00C4  0836               	movf	??_main,w
  4555  00C5  073C               	addwf	??_main+6,w
  4556  00C6  0086               	movwf	6
  4557  00C7  0837               	movf	??_main+1,w
  4558  00C8  3D3D               	addwfc	??_main+7,w
  4559  00C9  0087               	movwf	7
  4560  00CA  3F40               	moviw [0]fsr1
  4561  00CB  00F4               	movwf	iirDoFilter@input
  4562  00CC  3F41               	moviw [1]fsr1
  4563  00CD  00F5               	movwf	iirDoFilter@input+1
  4564  00CE  0845               	movf	_iirStructure,w
  4565  00CF  3182  22ED  3180   	fcall	_iirDoFilter
  4566                           
  4567                           ;main.c: 242: inactiveBuffer = (~dacBuffer.activeBuffer & 0x01);
  4568  00D2  30DE               	movlw	222
  4569  00D3  0086               	movwf	6
  4570  00D4  3023               	movlw	35
  4571  00D5  0087               	movwf	7
  4572  00D6  0901               	comf	1,w
  4573  00D7  3901               	andlw	1
  4574  00D8  0020               	movlb	0	; select bank0
  4575  00D9  00B6               	movwf	??_main
  4576  00DA  0836               	movf	??_main,w
  4577  00DB  00C0               	movwf	main@inactiveBuffer
  4578                           
  4579                           ;main.c: 244: dacBuffer.pingpongBuffer[inactiveBuffer][i] = iirGetOutValue(iirStructure)
      +                          ;
  4580  00DC  0845               	movf	_iirStructure,w
  4581  00DD  3183  230B  3180   	fcall	_iirGetOutValue
  4582  00E0  0020               	movlb	0	; select bank0
  4583  00E1  0842               	movf	main@i+1,w
  4584  00E2  00B7               	movwf	??_main+1
  4585  00E3  0841               	movf	main@i,w
  4586  00E4  00B6               	movwf	??_main
  4587  00E5  35B6               	lslf	??_main,f
  4588  00E6  0DB7               	rlf	??_main+1,f
  4589  00E7  0840               	movf	main@inactiveBuffer,w
  4590  00E8  00B8               	movwf	??_main+2
  4591  00E9  01B9               	clrf	??_main+3
  4592  00EA  3007               	movlw	7
  4593  00EB                     u635:	
  4594  00EB  35B8               	lslf	??_main+2,f
  4595  00EC  0DB9               	rlf	??_main+3,f
  4596  00ED  0B89               	decfsz	9,f
  4597  00EE  28EB               	goto	u635
  4598  00EF  30DE               	movlw	222
  4599  00F0  00BA               	movwf	??_main+4
  4600  00F1  3022               	movlw	34
  4601  00F2  00BB               	movwf	??_main+5
  4602  00F3  0838               	movf	??_main+2,w
  4603  00F4  073A               	addwf	??_main+4,w
  4604  00F5  00BC               	movwf	??_main+6
  4605  00F6  0839               	movf	??_main+3,w
  4606  00F7  3D3B               	addwfc	??_main+5,w
  4607  00F8  00BD               	movwf	??_main+7
  4608  00F9  0836               	movf	??_main,w
  4609  00FA  073C               	addwf	??_main+6,w
  4610  00FB  0086               	movwf	6
  4611  00FC  0837               	movf	??_main+1,w
  4612  00FD  3D3D               	addwfc	??_main+7,w
  4613  00FE  0087               	movwf	7
  4614  00FF  0832               	movf	?_iirGetOutValue,w
  4615  0100  3FC0               	movwi [0]fsr1
  4616  0101  0833               	movf	?_iirGetOutValue+1,w
  4617  0102  3FC1               	movwi [1]fsr1
  4618                           
  4619                           ;main.c: 249: inactiveBuffer = (~adcBuffer.activeBuffer & 0x01);
  4620  0103  30DC               	movlw	220
  4621  0104  0086               	movwf	6
  4622  0105  3022               	movlw	34
  4623  0106  0087               	movwf	7
  4624  0107  0901               	comf	1,w
  4625  0108  3901               	andlw	1
  4626  0109  00B6               	movwf	??_main
  4627  010A  0836               	movf	??_main,w
  4628  010B  00C0               	movwf	main@inactiveBuffer
  4629  010C  3001               	movlw	1
  4630  010D  07C1               	addwf	main@i,f
  4631  010E  3000               	movlw	0
  4632  010F  3DC2               	addwfc	main@i+1,f
  4633  0110  3000               	movlw	0
  4634  0111  0242               	subwf	main@i+1,w
  4635  0112  3040               	movlw	64
  4636  0113  1903               	skipnz
  4637  0114  0241               	subwf	main@i,w
  4638  0115  1C03               	skipc
  4639  0116  28AC               	goto	l1369
  4640  0117                     l1381:	
  4641                           
  4642                           ;main.c: 253: }
  4643                           ;main.c: 256: }
  4644                           ;main.c: 266: if(tickCounter - timeCurrent >= 100)
  4645  0117  093E               	comf	main@timeCurrent,w
  4646  0118  00B6               	movwf	??_main
  4647  0119  093F               	comf	main@timeCurrent+1,w
  4648  011A  00B7               	movwf	??_main+1
  4649  011B  0AB6               	incf	??_main,f
  4650  011C  1903               	skipnz
  4651  011D  0AB7               	incf	??_main+1,f
  4652  011E  0843               	movf	_tickCounter,w
  4653  011F  0736               	addwf	??_main,w
  4654  0120  00B8               	movwf	??_main+2
  4655  0121  0844               	movf	_tickCounter+1,w
  4656  0122  3D37               	addwfc	??_main+1,w
  4657  0123  00B9               	movwf	??_main+3
  4658  0124  3000               	movlw	0
  4659  0125  0239               	subwf	??_main+3,w
  4660  0126  3064               	movlw	100
  4661  0127  1903               	skipnz
  4662  0128  0238               	subwf	??_main+2,w
  4663  0129  1C03               	skipc
  4664  012A  2895               	goto	l1357
  4665                           
  4666                           ;main.c: 267: {
  4667                           ;main.c: 268: timeCurrent = tickCounter;
  4668  012B  0844               	movf	_tickCounter+1,w
  4669  012C  00BF               	movwf	main@timeCurrent+1
  4670  012D  0843               	movf	_tickCounter,w
  4671  012E  00BE               	movwf	main@timeCurrent
  4672                           
  4673                           ;main.c: 269: LATA ^= (1 << 5);
  4674  012F  3020               	movlw	32
  4675  0130  00B6               	movwf	??_main
  4676  0131  0836               	movf	??_main,w
  4677  0132  0022               	movlb	2	; select bank2
  4678  0133  068C               	xorwf	12,f	;volatile
  4679                           
  4680                           ;main.c: 270: }
  4681                           ;main.c: 272: }
  4682  0134  2895               	goto	l1357
  4683  0135                     __end_of_main:	
  4684                           
  4685                           	psect	text1
  4686  01F1                     __ptext1:	
  4687 ;; *************** function _iirInit *****************
  4688 ;; Defined at:
  4689 ;;		line 36 in file "digitalfilter_2nd_ord.c"
  4690 ;; Parameters:    Size  Location     Type
  4691 ;;  a_coeffs        2   18[BANK0 ] PTR const int 
  4692 ;;		 -> iirCoef_a(4), 
  4693 ;;  b_coeffs        2   20[BANK0 ] PTR const int 
  4694 ;;		 -> iirCoef_b(6), 
  4695 ;; Auto vars:     Size  Location     Type
  4696 ;;  f               1    5[COMMON] PTR struct __iir
  4697 ;;		 -> filterMemPool(22), 
  4698 ;; Return value:  Size  Location     Type
  4699 ;;                  1    wreg      PTR struct __iir
  4700 ;; Registers used:
  4701 ;;		wreg, fsr0l, fsr0h, fsr1l, fsr1h, status,2, status,0
  4702 ;; Tracked objects:
  4703 ;;		On entry : 0/0
  4704 ;;		On exit  : 0/0
  4705 ;;		Unchanged: 0/0
  4706 ;; Data sizes:     COMMON   BANK0   BANK1   BANK2   BANK3   BANK4   BANK5   BANK6   BANK7   BANK8   BANK9  BANK10  BANK1
      +1  BANK12
  4707 ;;      Params:         0       4       0       0       0       0       0       0       0       0       0       0       
      +0       0
  4708 ;;      Locals:         1       0       0       0       0       0       0       0       0       0       0       0       
      +0       0
  4709 ;;      Temps:          1       0       0       0       0       0       0       0       0       0       0       0       
      +0       0
  4710 ;;      Totals:         2       4       0       0       0       0       0       0       0       0       0       0       
      +0       0
  4711 ;;Total ram usage:        6 bytes
  4712 ;; Hardware stack levels used:    1
  4713 ;; Hardware stack levels required when called:    4
  4714 ;; This function calls:
  4715 ;;		Nothing
  4716 ;; This function is called by:
  4717 ;;		_main
  4718 ;; This function uses a non-reentrant model
  4719 ;;
  4720                           
  4721                           
  4722                           ;psect for function _iirInit
  4723  01F1                     _iirInit:	
  4724                           
  4725                           ;digitalfilter_2nd_ord.c: 38: iirflt *f = &filterMemPool[0];
  4726                           
  4727                           ;incstack = 0
  4728                           ; Regs used in _iirInit: [wreg-fsr1h+status,2+status,0]
  4729  01F1  3048               	movlw	(low (_filterMemPool| 0))& (0+255)
  4730  01F2  00F4               	movwf	??_iirInit
  4731  01F3  0874               	movf	??_iirInit,w
  4732  01F4  00F5               	movwf	iirInit@f
  4733                           
  4734                           ;digitalfilter_2nd_ord.c: 40: if(outOfFilters != 1)
  4735  01F5  0378               	decf	_outOfFilters,w
  4736  01F6  1903               	btfsc	3,2
  4737  01F7  2A65               	goto	l1309
  4738                           
  4739                           ;digitalfilter_2nd_ord.c: 41: {
  4740                           ;digitalfilter_2nd_ord.c: 47: f->currentOutput = 0;
  4741  01F8  0875               	movf	iirInit@f,w
  4742  01F9  3E0A               	addlw	10
  4743  01FA  0086               	movwf	6
  4744  01FB  0187               	clrf	7
  4745  01FC  3000               	movlw	0
  4746  01FD  3FC0               	movwi [0]fsr1
  4747  01FE  3FC1               	movwi [1]fsr1
  4748                           
  4749                           ;digitalfilter_2nd_ord.c: 48: f->inputState[0] = 0;
  4750  01FF  0875               	movf	iirInit@f,w
  4751  0200  0086               	movwf	6
  4752  0201  0187               	clrf	7
  4753  0202  3000               	movlw	0
  4754  0203  3FC0               	movwi [0]fsr1
  4755  0204  3FC1               	movwi [1]fsr1
  4756                           
  4757                           ;digitalfilter_2nd_ord.c: 49: f->inputState[1] = 0;
  4758  0205  0875               	movf	iirInit@f,w
  4759  0206  3E02               	addlw	2
  4760  0207  0086               	movwf	6
  4761  0208  0187               	clrf	7
  4762  0209  3000               	movlw	0
  4763  020A  3FC0               	movwi [0]fsr1
  4764  020B  3FC1               	movwi [1]fsr1
  4765                           
  4766                           ;digitalfilter_2nd_ord.c: 50: f->inputState[2] = 0;
  4767  020C  0875               	movf	iirInit@f,w
  4768  020D  3E04               	addlw	4
  4769  020E  0086               	movwf	6
  4770  020F  0187               	clrf	7
  4771  0210  3000               	movlw	0
  4772  0211  3FC0               	movwi [0]fsr1
  4773  0212  3FC1               	movwi [1]fsr1
  4774                           
  4775                           ;digitalfilter_2nd_ord.c: 53: f->outputState[0] = 0;
  4776  0213  0875               	movf	iirInit@f,w
  4777  0214  3E06               	addlw	6
  4778  0215  0086               	movwf	6
  4779  0216  0187               	clrf	7
  4780  0217  3000               	movlw	0
  4781  0218  3FC0               	movwi [0]fsr1
  4782  0219  3FC1               	movwi [1]fsr1
  4783                           
  4784                           ;digitalfilter_2nd_ord.c: 54: f->outputState[1] = 0;
  4785  021A  0875               	movf	iirInit@f,w
  4786  021B  3E08               	addlw	8
  4787  021C  0086               	movwf	6
  4788  021D  0187               	clrf	7
  4789  021E  3000               	movlw	0
  4790  021F  3FC0               	movwi [0]fsr1
  4791  0220  3FC1               	movwi [1]fsr1
  4792                           
  4793                           ;digitalfilter_2nd_ord.c: 59: f->pCoefTable_a[0] = a_coeffs[0];
  4794  0221  0020               	movlb	0	; select bank0
  4795  0222  0832               	movf	iirInit@a_coeffs,w
  4796  0223  0086               	movwf	6
  4797  0224  0833               	movf	iirInit@a_coeffs+1,w
  4798  0225  0087               	movwf	7
  4799  0226  0875               	movf	iirInit@f,w
  4800  0227  3E0C               	addlw	12
  4801  0228  0084               	movwf	4
  4802  0229  0185               	clrf	5
  4803  022A  3F40               	moviw [0]fsr1
  4804  022B  3F80               	movwi [0]fsr0
  4805  022C  3F41               	moviw [1]fsr1
  4806  022D  3F81               	movwi [1]fsr0
  4807                           
  4808                           ;digitalfilter_2nd_ord.c: 60: f->pCoefTable_a[1] = a_coeffs[1];
  4809  022E  0832               	movf	iirInit@a_coeffs,w
  4810  022F  0086               	movwf	6
  4811  0230  0833               	movf	iirInit@a_coeffs+1,w
  4812  0231  0087               	movwf	7
  4813  0232  3142               	addfsr 1,2
  4814  0233  0875               	movf	iirInit@f,w
  4815  0234  3E0E               	addlw	14
  4816  0235  0084               	movwf	4
  4817  0236  0185               	clrf	5
  4818  0237  3F40               	moviw [0]fsr1
  4819  0238  3F80               	movwi [0]fsr0
  4820  0239  3F41               	moviw [1]fsr1
  4821  023A  3F81               	movwi [1]fsr0
  4822                           
  4823                           ;digitalfilter_2nd_ord.c: 62: f->pCoefTable_b[0] = b_coeffs[0];
  4824  023B  0834               	movf	iirInit@b_coeffs,w
  4825  023C  0086               	movwf	6
  4826  023D  0835               	movf	iirInit@b_coeffs+1,w
  4827  023E  0087               	movwf	7
  4828  023F  0875               	movf	iirInit@f,w
  4829  0240  3E10               	addlw	16
  4830  0241  0084               	movwf	4
  4831  0242  0185               	clrf	5
  4832  0243  3F40               	moviw [0]fsr1
  4833  0244  3F80               	movwi [0]fsr0
  4834  0245  3F41               	moviw [1]fsr1
  4835  0246  3F81               	movwi [1]fsr0
  4836                           
  4837                           ;digitalfilter_2nd_ord.c: 63: f->pCoefTable_b[1] = b_coeffs[1];
  4838  0247  0834               	movf	iirInit@b_coeffs,w
  4839  0248  0086               	movwf	6
  4840  0249  0835               	movf	iirInit@b_coeffs+1,w
  4841  024A  0087               	movwf	7
  4842  024B  3142               	addfsr 1,2
  4843  024C  0875               	movf	iirInit@f,w
  4844  024D  3E12               	addlw	18
  4845  024E  0084               	movwf	4
  4846  024F  0185               	clrf	5
  4847  0250  3F40               	moviw [0]fsr1
  4848  0251  3F80               	movwi [0]fsr0
  4849  0252  3F41               	moviw [1]fsr1
  4850  0253  3F81               	movwi [1]fsr0
  4851                           
  4852                           ;digitalfilter_2nd_ord.c: 64: f->pCoefTable_b[2] = b_coeffs[2];
  4853  0254  0834               	movf	iirInit@b_coeffs,w
  4854  0255  0086               	movwf	6
  4855  0256  0835               	movf	iirInit@b_coeffs+1,w
  4856  0257  0087               	movwf	7
  4857  0258  3144               	addfsr 1,4
  4858  0259  0875               	movf	iirInit@f,w
  4859  025A  3E14               	addlw	20
  4860  025B  0084               	movwf	4
  4861  025C  0185               	clrf	5
  4862  025D  3F40               	moviw [0]fsr1
  4863  025E  3F80               	movwi [0]fsr0
  4864  025F  3F41               	moviw [1]fsr1
  4865  0260  3F81               	movwi [1]fsr0
  4866                           
  4867                           ;digitalfilter_2nd_ord.c: 70: outOfFilters = 1;
  4868  0261  01F8               	clrf	_outOfFilters
  4869  0262  0AF8               	incf	_outOfFilters,f
  4870                           
  4871                           ;digitalfilter_2nd_ord.c: 72: return(f);
  4872  0263  0875               	movf	iirInit@f,w
  4873                           
  4874                           ;digitalfilter_2nd_ord.c: 73: }
  4875  0264  0008               	return
  4876  0265                     l1309:	
  4877                           
  4878                           ;digitalfilter_2nd_ord.c: 74: else
  4879                           ;digitalfilter_2nd_ord.c: 75: {
  4880                           ;digitalfilter_2nd_ord.c: 79: return(0);
  4881  0265  3000               	movlw	0
  4882  0266  0008               	return
  4883  0267                     __end_of_iirInit:	
  4884                           
  4885                           	psect	text2
  4886  030B                     __ptext2:	
  4887 ;; *************** function _iirGetOutValue *****************
  4888 ;; Defined at:
  4889 ;;		line 115 in file "digitalfilter_2nd_ord.c"
  4890 ;; Parameters:    Size  Location     Type
  4891 ;;  f               1    wreg     PTR struct __iir
  4892 ;;		 -> filterMemPool(22), NULL(0), 
  4893 ;; Auto vars:     Size  Location     Type
  4894 ;;  f               1    4[COMMON] PTR struct __iir
  4895 ;;		 -> filterMemPool(22), NULL(0), 
  4896 ;; Return value:  Size  Location     Type
  4897 ;;                  2   18[BANK0 ] int 
  4898 ;; Registers used:
  4899 ;;		wreg, fsr1l, fsr1h, status,2, status,0
  4900 ;; Tracked objects:
  4901 ;;		On entry : 0/0
  4902 ;;		On exit  : 0/0
  4903 ;;		Unchanged: 0/0
  4904 ;; Data sizes:     COMMON   BANK0   BANK1   BANK2   BANK3   BANK4   BANK5   BANK6   BANK7   BANK8   BANK9  BANK10  BANK1
      +1  BANK12
  4905 ;;      Params:         0       3       0       0       0       0       0       0       0       0       0       0       
      +0       0
  4906 ;;      Locals:         1       0       0       0       0       0       0       0       0       0       0       0       
      +0       0
  4907 ;;      Temps:          0       0       0       0       0       0       0       0       0       0       0       0       
      +0       0
  4908 ;;      Totals:         1       3       0       0       0       0       0       0       0       0       0       0       
      +0       0
  4909 ;;Total ram usage:        4 bytes
  4910 ;; Hardware stack levels used:    1
  4911 ;; Hardware stack levels required when called:    4
  4912 ;; This function calls:
  4913 ;;		Nothing
  4914 ;; This function is called by:
  4915 ;;		_main
  4916 ;; This function uses a non-reentrant model
  4917 ;;
  4918                           
  4919                           
  4920                           ;psect for function _iirGetOutValue
  4921  030B                     _iirGetOutValue:	
  4922                           
  4923                           ;incstack = 0
  4924                           ; Regs used in _iirGetOutValue: [wreg+fsr1l+fsr1h+status,2+status,0]
  4925                           ;iirGetOutValue@f stored from wreg
  4926  030B  00F4               	movwf	iirGetOutValue@f
  4927                           
  4928                           ;digitalfilter_2nd_ord.c: 117: if(f != (iirflt *)0)
  4929  030C  0874               	movf	iirGetOutValue@f,w
  4930  030D  1903               	btfsc	3,2
  4931  030E  2B19               	goto	l1333
  4932                           
  4933                           ;digitalfilter_2nd_ord.c: 118: {
  4934                           ;digitalfilter_2nd_ord.c: 119: return(f->currentOutput);
  4935  030F  0874               	movf	iirGetOutValue@f,w
  4936  0310  3E0A               	addlw	10
  4937  0311  0086               	movwf	6
  4938  0312  0187               	clrf	7
  4939  0313  3F40               	moviw [0]fsr1
  4940  0314  0020               	movlb	0	; select bank0
  4941  0315  00B2               	movwf	?_iirGetOutValue
  4942  0316  3F41               	moviw [1]fsr1
  4943  0317  00B3               	movwf	?_iirGetOutValue+1
  4944                           
  4945                           ;digitalfilter_2nd_ord.c: 120: }
  4946  0318  0008               	return
  4947  0319                     l1333:	
  4948                           
  4949                           ;digitalfilter_2nd_ord.c: 121: else
  4950                           ;digitalfilter_2nd_ord.c: 122: {
  4951                           ;digitalfilter_2nd_ord.c: 123: return(0);
  4952  0319  0020               	movlb	0	; select bank0
  4953  031A  01B2               	clrf	?_iirGetOutValue
  4954  031B  01B3               	clrf	?_iirGetOutValue+1
  4955  031C  0008               	return
  4956  031D                     __end_of_iirGetOutValue:	
  4957                           
  4958                           	psect	text3
  4959  02ED                     __ptext3:	
  4960 ;; *************** function _iirDoFilter *****************
  4961 ;; Defined at:
  4962 ;;		line 86 in file "digitalfilter_2nd_ord.c"
  4963 ;; Parameters:    Size  Location     Type
  4964 ;;  f               1    wreg     PTR struct __iir
  4965 ;;		 -> filterMemPool(22), NULL(0), 
  4966 ;;  input           2    4[COMMON] int 
  4967 ;; Auto vars:     Size  Location     Type
  4968 ;;  f               1   20[BANK0 ] PTR struct __iir
  4969 ;;		 -> filterMemPool(22), NULL(0), 
  4970 ;;  __fsrTmp        2   18[BANK0 ] unsigned int 
  4971 ;; Return value:  Size  Location     Type
  4972 ;;		None               void
  4973 ;; Registers used:
  4974 ;;		wreg, fsr0l, fsr0h, fsr1l, fsr1h, fsr1l, fsr1h, status,2, status,0, pclath, cstack
  4975 ;; Tracked objects:
  4976 ;;		On entry : 0/0
  4977 ;;		On exit  : 0/0
  4978 ;;		Unchanged: 0/0
  4979 ;; Data sizes:     COMMON   BANK0   BANK1   BANK2   BANK3   BANK4   BANK5   BANK6   BANK7   BANK8   BANK9  BANK10  BANK1
      +1  BANK12
  4980 ;;      Params:         2       0       0       0       0       0       0       0       0       0       0       0       
      +0       0
  4981 ;;      Locals:         0       3       0       0       0       0       0       0       0       0       0       0       
      +0       0
  4982 ;;      Temps:          0       0       0       0       0       0       0       0       0       0       0       0       
      +0       0
  4983 ;;      Totals:         2       3       0       0       0       0       0       0       0       0       0       0       
      +0       0
  4984 ;;Total ram usage:        5 bytes
  4985 ;; Hardware stack levels used:    1
  4986 ;; Hardware stack levels required when called:    5
  4987 ;; This function calls:
  4988 ;;		_iirFilter_2nd_Ord
  4989 ;; This function is called by:
  4990 ;;		_main
  4991 ;; This function uses a non-reentrant model
  4992 ;;
  4993                           
  4994                           
  4995                           ;psect for function _iirDoFilter
  4996  02ED                     _iirDoFilter:	
  4997                           
  4998                           ;incstack = 0
  4999                           ; Regs used in _iirDoFilter: [allreg]
  5000                           ;iirDoFilter@f stored from wreg
  5001  02ED  0020               	movlb	0	; select bank0
  5002  02EE  00B4               	movwf	iirDoFilter@f
  5003                           
  5004                           ;digitalfilter_2nd_ord.c: 88: uint16_t __fsrTmp = FSR0;
  5005  02EF  0805               	movf	5,w	;volatile
  5006  02F0  00B3               	movwf	iirDoFilter@__fsrTmp+1
  5007  02F1  0804               	movf	4,w	;volatile
  5008  02F2  00B2               	movwf	iirDoFilter@__fsrTmp
  5009                           
  5010                           ;digitalfilter_2nd_ord.c: 90: if(f != (iirflt *)0)
  5011  02F3  0834               	movf	iirDoFilter@f,w
  5012  02F4  1903               	btfsc	3,2
  5013  02F5  2B05               	goto	l1323
  5014                           
  5015                           ;digitalfilter_2nd_ord.c: 91: {
  5016                           ;digitalfilter_2nd_ord.c: 96: FSR0 = f;
  5017  02F6  0834               	movf	iirDoFilter@f,w
  5018  02F7  0084               	movwf	4	;volatile
  5019  02F8  39FF               	andlw	255
  5020  02F9  1D03               	skipz
  5021  02FA  3000               	movlw	0
  5022  02FB  0085               	movwf	5	;volatile
  5023                           
  5024                           ;digitalfilter_2nd_ord.c: 97: f->inputState[0] = input;
  5025  02FC  0834               	movf	iirDoFilter@f,w
  5026  02FD  0086               	movwf	6
  5027  02FE  0187               	clrf	7
  5028  02FF  0874               	movf	iirDoFilter@input,w
  5029  0300  3FC0               	movwi [0]fsr1
  5030  0301  0875               	movf	iirDoFilter@input+1,w
  5031  0302  3FC1               	movwi [1]fsr1
  5032                           
  5033                           ;digitalfilter_2nd_ord.c: 102: iirFilter_2nd_Ord();
  5034  0303  3182  2268         	fcall	_iirFilter_2nd_Ord
  5035  0305                     l1323:	
  5036                           
  5037                           ;digitalfilter_2nd_ord.c: 103: }
  5038                           ;digitalfilter_2nd_ord.c: 108: FSR0 = __fsrTmp;
  5039  0305  0020               	movlb	0	; select bank0
  5040  0306  0833               	movf	iirDoFilter@__fsrTmp+1,w
  5041  0307  0085               	movwf	5	;volatile
  5042  0308  0832               	movf	iirDoFilter@__fsrTmp,w
  5043  0309  0084               	movwf	4	;volatile
  5044  030A  0008               	return
  5045  030B                     __end_of_iirDoFilter:	
  5046                           
  5047                           	psect	text4
  5048  031D                     __ptext4:	
  5049 ;; *************** function _SYSTEM_Initialize *****************
  5050 ;; Defined at:
  5051 ;;		line 77 in file "mcc_generated_files/mcc.c"
  5052 ;; Parameters:    Size  Location     Type
  5053 ;;		None
  5054 ;; Auto vars:     Size  Location     Type
  5055 ;;		None
  5056 ;; Return value:  Size  Location     Type
  5057 ;;		None               void
  5058 ;; Registers used:
  5059 ;;		wreg, status,2, status,0, pclath, cstack
  5060 ;; Tracked objects:
  5061 ;;		On entry : 0/0
  5062 ;;		On exit  : 0/0
  5063 ;;		Unchanged: 0/0
  5064 ;; Data sizes:     COMMON   BANK0   BANK1   BANK2   BANK3   BANK4   BANK5   BANK6   BANK7   BANK8   BANK9  BANK10  BANK1
      +1  BANK12
  5065 ;;      Params:         0       0       0       0       0       0       0       0       0       0       0       0       
      +0       0
  5066 ;;      Locals:         0       0       0       0       0       0       0       0       0       0       0       0       
      +0       0
  5067 ;;      Temps:          0       0       0       0       0       0       0       0       0       0       0       0       
      +0       0
  5068 ;;      Totals:         0       0       0       0       0       0       0       0       0       0       0       0       
      +0       0
  5069 ;;Total ram usage:        0 bytes
  5070 ;; Hardware stack levels used:    1
  5071 ;; Hardware stack levels required when called:    6
  5072 ;; This function calls:
  5073 ;;		_ADC1_Initialize
  5074 ;;		_DAC1_Initialize
  5075 ;;		_MATHACC_Initialize
  5076 ;;		_OSCILLATOR_Initialize
  5077 ;;		_PIN_MANAGER_Initialize
  5078 ;;		_TMR1_Initialize
  5079 ;; This function is called by:
  5080 ;;		_main
  5081 ;; This function uses a non-reentrant model
  5082 ;;
  5083                           
  5084                           
  5085                           ;psect for function _SYSTEM_Initialize
  5086  031D                     _SYSTEM_Initialize:	
  5087                           
  5088                           ;mcc.c: 78: OSCILLATOR_Initialize();
  5089                           
  5090                           ;incstack = 0
  5091                           ; Regs used in _SYSTEM_Initialize: [wreg+status,2+status,0+pclath+cstack]
  5092  031D  3183  238C  3183   	fcall	_OSCILLATOR_Initialize
  5093                           
  5094                           ;mcc.c: 79: PIN_MANAGER_Initialize();
  5095  0320  3182  22CE  3183   	fcall	_PIN_MANAGER_Initialize
  5096                           
  5097                           ;mcc.c: 80: ADC1_Initialize();
  5098  0323  3183  2382  3183   	fcall	_ADC1_Initialize
  5099                           
  5100                           ;mcc.c: 81: DAC1_Initialize();
  5101  0326  3183  2392  3183   	fcall	_DAC1_Initialize
  5102                           
  5103                           ;mcc.c: 82: MATHACC_Initialize();
  5104  0329  3183  23A8  3183   	fcall	_MATHACC_Initialize
  5105                           
  5106                           ;mcc.c: 83: TMR1_Initialize();
  5107  032C  3183  232F         	fcall	_TMR1_Initialize
  5108  032E  0008               	return
  5109  032F                     __end_of_SYSTEM_Initialize:	
  5110                           
  5111                           	psect	text5
  5112  032F                     __ptext5:	
  5113 ;; *************** function _TMR1_Initialize *****************
  5114 ;; Defined at:
  5115 ;;		line 70 in file "mcc_generated_files/tmr1.c"
  5116 ;; Parameters:    Size  Location     Type
  5117 ;;		None
  5118 ;; Auto vars:     Size  Location     Type
  5119 ;;		None
  5120 ;; Return value:  Size  Location     Type
  5121 ;;		None               void
  5122 ;; Registers used:
  5123 ;;		wreg, status,2, status,0, pclath, cstack
  5124 ;; Tracked objects:
  5125 ;;		On entry : 0/0
  5126 ;;		On exit  : 0/0
  5127 ;;		Unchanged: 0/0
  5128 ;; Data sizes:     COMMON   BANK0   BANK1   BANK2   BANK3   BANK4   BANK5   BANK6   BANK7   BANK8   BANK9  BANK10  BANK1
      +1  BANK12
  5129 ;;      Params:         0       0       0       0       0       0       0       0       0       0       0       0       
      +0       0
  5130 ;;      Locals:         0       0       0       0       0       0       0       0       0       0       0       0       
      +0       0
  5131 ;;      Temps:          0       0       0       0       0       0       0       0       0       0       0       0       
      +0       0
  5132 ;;      Totals:         0       0       0       0       0       0       0       0       0       0       0       0       
      +0       0
  5133 ;;Total ram usage:        0 bytes
  5134 ;; Hardware stack levels used:    1
  5135 ;; Hardware stack levels required when called:    5
  5136 ;; This function calls:
  5137 ;;		_TMR1_StartTimer
  5138 ;; This function is called by:
  5139 ;;		_SYSTEM_Initialize
  5140 ;; This function uses a non-reentrant model
  5141 ;;
  5142                           
  5143                           
  5144                           ;psect for function _TMR1_Initialize
  5145  032F                     _TMR1_Initialize:	
  5146                           
  5147                           ;tmr1.c: 74: T1CON = 0x00;
  5148                           
  5149                           ;incstack = 0
  5150                           ; Regs used in _TMR1_Initialize: [wreg+status,2+status,0+pclath+cstack]
  5151  032F  0020               	movlb	0	; select bank0
  5152  0330  0198               	clrf	24	;volatile
  5153                           
  5154                           ;tmr1.c: 77: T1GCON = 0x00;
  5155  0331  0199               	clrf	25	;volatile
  5156                           
  5157                           ;tmr1.c: 80: TMR1H = 0xFC;
  5158  0332  30FC               	movlw	252
  5159  0333  0097               	movwf	23	;volatile
  5160                           
  5161                           ;tmr1.c: 83: TMR1L = 0x17;
  5162  0334  3017               	movlw	23
  5163  0335  0096               	movwf	22	;volatile
  5164                           
  5165                           ;tmr1.c: 86: timer1ReloadVal = (TMR1H << 8) | TMR1L;
  5166  0336  0817               	movf	23,w	;volatile
  5167  0337  00F7               	movwf	_timer1ReloadVal+1	;volatile
  5168  0338  0816               	movf	22,w	;volatile
  5169  0339  00F6               	movwf	_timer1ReloadVal	;volatile
  5170                           
  5171                           ;tmr1.c: 89: PIR1bits.TMR1IF = 0;
  5172  033A  1010               	bcf	16,0	;volatile
  5173                           
  5174                           ;tmr1.c: 92: PIE1bits.TMR1IE = 1;
  5175  033B  0021               	movlb	1	; select bank1
  5176  033C  1410               	bsf	16,0	;volatile
  5177                           
  5178                           ;tmr1.c: 95: TMR1_StartTimer();
  5179  033D  3183  23AC         	fcall	_TMR1_StartTimer
  5180  033F  0008               	return
  5181  0340                     __end_of_TMR1_Initialize:	
  5182                           
  5183                           	psect	text6
  5184  03AC                     __ptext6:	
  5185 ;; *************** function _TMR1_StartTimer *****************
  5186 ;; Defined at:
  5187 ;;		line 98 in file "mcc_generated_files/tmr1.c"
  5188 ;; Parameters:    Size  Location     Type
  5189 ;;		None
  5190 ;; Auto vars:     Size  Location     Type
  5191 ;;		None
  5192 ;; Return value:  Size  Location     Type
  5193 ;;		None               void
  5194 ;; Registers used:
  5195 ;;		None
  5196 ;; Tracked objects:
  5197 ;;		On entry : 0/0
  5198 ;;		On exit  : 0/0
  5199 ;;		Unchanged: 0/0
  5200 ;; Data sizes:     COMMON   BANK0   BANK1   BANK2   BANK3   BANK4   BANK5   BANK6   BANK7   BANK8   BANK9  BANK10  BANK1
      +1  BANK12
  5201 ;;      Params:         0       0       0       0       0       0       0       0       0       0       0       0       
      +0       0
  5202 ;;      Locals:         0       0       0       0       0       0       0       0       0       0       0       0       
      +0       0
  5203 ;;      Temps:          0       0       0       0       0       0       0       0       0       0       0       0       
      +0       0
  5204 ;;      Totals:         0       0       0       0       0       0       0       0       0       0       0       0       
      +0       0
  5205 ;;Total ram usage:        0 bytes
  5206 ;; Hardware stack levels used:    1
  5207 ;; Hardware stack levels required when called:    4
  5208 ;; This function calls:
  5209 ;;		Nothing
  5210 ;; This function is called by:
  5211 ;;		_TMR1_Initialize
  5212 ;; This function uses a non-reentrant model
  5213 ;;
  5214                           
  5215                           
  5216                           ;psect for function _TMR1_StartTimer
  5217  03AC                     _TMR1_StartTimer:	
  5218                           
  5219                           ;tmr1.c: 100: T1CONbits.TMR1ON = 1;
  5220                           
  5221                           ;incstack = 0
  5222                           ; Regs used in _TMR1_StartTimer: []
  5223  03AC  0020               	movlb	0	; select bank0
  5224  03AD  1418               	bsf	24,0	;volatile
  5225  03AE  0008               	return
  5226  03AF                     __end_of_TMR1_StartTimer:	
  5227                           
  5228                           	psect	text7
  5229  02CE                     __ptext7:	
  5230 ;; *************** function _PIN_MANAGER_Initialize *****************
  5231 ;; Defined at:
  5232 ;;		line 50 in file "mcc_generated_files/pin_manager.c"
  5233 ;; Parameters:    Size  Location     Type
  5234 ;;		None
  5235 ;; Auto vars:     Size  Location     Type
  5236 ;;		None
  5237 ;; Return value:  Size  Location     Type
  5238 ;;		None               void
  5239 ;; Registers used:
  5240 ;;		wreg, status,2
  5241 ;; Tracked objects:
  5242 ;;		On entry : 0/0
  5243 ;;		On exit  : 0/0
  5244 ;;		Unchanged: 0/0
  5245 ;; Data sizes:     COMMON   BANK0   BANK1   BANK2   BANK3   BANK4   BANK5   BANK6   BANK7   BANK8   BANK9  BANK10  BANK1
      +1  BANK12
  5246 ;;      Params:         0       0       0       0       0       0       0       0       0       0       0       0       
      +0       0
  5247 ;;      Locals:         0       0       0       0       0       0       0       0       0       0       0       0       
      +0       0
  5248 ;;      Temps:          0       0       0       0       0       0       0       0       0       0       0       0       
      +0       0
  5249 ;;      Totals:         0       0       0       0       0       0       0       0       0       0       0       0       
      +0       0
  5250 ;;Total ram usage:        0 bytes
  5251 ;; Hardware stack levels used:    1
  5252 ;; Hardware stack levels required when called:    4
  5253 ;; This function calls:
  5254 ;;		Nothing
  5255 ;; This function is called by:
  5256 ;;		_SYSTEM_Initialize
  5257 ;; This function uses a non-reentrant model
  5258 ;;
  5259                           
  5260                           
  5261                           ;psect for function _PIN_MANAGER_Initialize
  5262  02CE                     _PIN_MANAGER_Initialize:	
  5263                           
  5264                           ;pin_manager.c: 51: LATA = 0x00;
  5265                           
  5266                           ;incstack = 0
  5267                           ; Regs used in _PIN_MANAGER_Initialize: [wreg+status,2]
  5268  02CE  0022               	movlb	2	; select bank2
  5269  02CF  018C               	clrf	12	;volatile
  5270                           
  5271                           ;pin_manager.c: 52: TRISA = 0x3E;
  5272  02D0  303E               	movlw	62
  5273  02D1  0021               	movlb	1	; select bank1
  5274  02D2  008C               	movwf	12	;volatile
  5275                           
  5276                           ;pin_manager.c: 53: ANSELA = 0x17;
  5277  02D3  3017               	movlw	23
  5278  02D4  0023               	movlb	3	; select bank3
  5279  02D5  008C               	movwf	12	;volatile
  5280                           
  5281                           ;pin_manager.c: 55: LATB = 0x00;
  5282  02D6  0022               	movlb	2	; select bank2
  5283  02D7  018D               	clrf	13	;volatile
  5284                           
  5285                           ;pin_manager.c: 56: TRISB = 0xF0;
  5286  02D8  30F0               	movlw	240
  5287  02D9  0021               	movlb	1	; select bank1
  5288  02DA  008D               	movwf	13	;volatile
  5289                           
  5290                           ;pin_manager.c: 57: ANSELB = 0x30;
  5291  02DB  3030               	movlw	48
  5292  02DC  0023               	movlb	3	; select bank3
  5293  02DD  008D               	movwf	13	;volatile
  5294                           
  5295                           ;pin_manager.c: 58: WPUB = 0x00;
  5296  02DE  0024               	movlb	4	; select bank4
  5297  02DF  018D               	clrf	13	;volatile
  5298                           
  5299                           ;pin_manager.c: 60: LATC = 0x00;
  5300  02E0  0022               	movlb	2	; select bank2
  5301  02E1  018E               	clrf	14	;volatile
  5302                           
  5303                           ;pin_manager.c: 61: TRISC = 0xFF;
  5304  02E2  30FF               	movlw	255
  5305  02E3  0021               	movlb	1	; select bank1
  5306  02E4  008E               	movwf	14	;volatile
  5307                           
  5308                           ;pin_manager.c: 62: ANSELC = 0xCF;
  5309  02E5  30CF               	movlw	207
  5310  02E6  0023               	movlb	3	; select bank3
  5311  02E7  008E               	movwf	14	;volatile
  5312                           
  5313                           ;pin_manager.c: 63: WPUC = 0x00;
  5314  02E8  0024               	movlb	4	; select bank4
  5315  02E9  018E               	clrf	14	;volatile
  5316                           
  5317                           ;pin_manager.c: 65: OPTION_REGbits.nWPUEN = 0x01;
  5318  02EA  0021               	movlb	1	; select bank1
  5319  02EB  1795               	bsf	21,7	;volatile
  5320  02EC  0008               	return
  5321  02ED                     __end_of_PIN_MANAGER_Initialize:	
  5322                           
  5323                           	psect	text8
  5324  038C                     __ptext8:	
  5325 ;; *************** function _OSCILLATOR_Initialize *****************
  5326 ;; Defined at:
  5327 ;;		line 86 in file "mcc_generated_files/mcc.c"
  5328 ;; Parameters:    Size  Location     Type
  5329 ;;		None
  5330 ;; Auto vars:     Size  Location     Type
  5331 ;;		None
  5332 ;; Return value:  Size  Location     Type
  5333 ;;		None               void
  5334 ;; Registers used:
  5335 ;;		wreg, status,2
  5336 ;; Tracked objects:
  5337 ;;		On entry : 0/0
  5338 ;;		On exit  : 0/0
  5339 ;;		Unchanged: 0/0
  5340 ;; Data sizes:     COMMON   BANK0   BANK1   BANK2   BANK3   BANK4   BANK5   BANK6   BANK7   BANK8   BANK9  BANK10  BANK1
      +1  BANK12
  5341 ;;      Params:         0       0       0       0       0       0       0       0       0       0       0       0       
      +0       0
  5342 ;;      Locals:         0       0       0       0       0       0       0       0       0       0       0       0       
      +0       0
  5343 ;;      Temps:          0       0       0       0       0       0       0       0       0       0       0       0       
      +0       0
  5344 ;;      Totals:         0       0       0       0       0       0       0       0       0       0       0       0       
      +0       0
  5345 ;;Total ram usage:        0 bytes
  5346 ;; Hardware stack levels used:    1
  5347 ;; Hardware stack levels required when called:    4
  5348 ;; This function calls:
  5349 ;;		Nothing
  5350 ;; This function is called by:
  5351 ;;		_SYSTEM_Initialize
  5352 ;; This function uses a non-reentrant model
  5353 ;;
  5354                           
  5355                           
  5356                           ;psect for function _OSCILLATOR_Initialize
  5357  038C                     _OSCILLATOR_Initialize:	
  5358                           
  5359                           ;mcc.c: 88: OSCCON = 0xF0;
  5360                           
  5361                           ;incstack = 0
  5362                           ; Regs used in _OSCILLATOR_Initialize: [wreg+status,2]
  5363  038C  30F0               	movlw	240
  5364  038D  0021               	movlb	1	; select bank1
  5365  038E  0099               	movwf	25	;volatile
  5366                           
  5367                           ;mcc.c: 90: OSCSTAT = 0x00;
  5368  038F  019A               	clrf	26	;volatile
  5369                           
  5370                           ;mcc.c: 92: OSCTUNE = 0x00;
  5371  0390  0198               	clrf	24	;volatile
  5372  0391  0008               	return
  5373  0392                     __end_of_OSCILLATOR_Initialize:	
  5374                           
  5375                           	psect	text9
  5376  03A8                     __ptext9:	
  5377 ;; *************** function _MATHACC_Initialize *****************
  5378 ;; Defined at:
  5379 ;;		line 60 in file "mcc_generated_files/mathacc.c"
  5380 ;; Parameters:    Size  Location     Type
  5381 ;;		None
  5382 ;; Auto vars:     Size  Location     Type
  5383 ;;		None
  5384 ;; Return value:  Size  Location     Type
  5385 ;;		None               void
  5386 ;; Registers used:
  5387 ;;		wreg
  5388 ;; Tracked objects:
  5389 ;;		On entry : 0/0
  5390 ;;		On exit  : 0/0
  5391 ;;		Unchanged: 0/0
  5392 ;; Data sizes:     COMMON   BANK0   BANK1   BANK2   BANK3   BANK4   BANK5   BANK6   BANK7   BANK8   BANK9  BANK10  BANK1
      +1  BANK12
  5393 ;;      Params:         0       0       0       0       0       0       0       0       0       0       0       0       
      +0       0
  5394 ;;      Locals:         0       0       0       0       0       0       0       0       0       0       0       0       
      +0       0
  5395 ;;      Temps:          0       0       0       0       0       0       0       0       0       0       0       0       
      +0       0
  5396 ;;      Totals:         0       0       0       0       0       0       0       0       0       0       0       0       
      +0       0
  5397 ;;Total ram usage:        0 bytes
  5398 ;; Hardware stack levels used:    1
  5399 ;; Hardware stack levels required when called:    4
  5400 ;; This function calls:
  5401 ;;		Nothing
  5402 ;; This function is called by:
  5403 ;;		_SYSTEM_Initialize
  5404 ;; This function uses a non-reentrant model
  5405 ;;
  5406                           
  5407                           
  5408                           ;psect for function _MATHACC_Initialize
  5409  03A8                     _MATHACC_Initialize:	
  5410                           
  5411                           ;mathacc.c: 63: PID1CON = 0x83;
  5412                           
  5413                           ;incstack = 0
  5414                           ; Regs used in _MATHACC_Initialize: [wreg]
  5415  03A8  3083               	movlw	131
  5416  03A9  002C               	movlb	12	; select bank12
  5417  03AA  0094               	movwf	20	;volatile
  5418  03AB  0008               	return
  5419  03AC                     __end_of_MATHACC_Initialize:	
  5420                           
  5421                           	psect	text10
  5422  0392                     __ptext10:	
  5423 ;; *************** function _DAC1_Initialize *****************
  5424 ;; Defined at:
  5425 ;;		line 58 in file "mcc_generated_files/dac1.c"
  5426 ;; Parameters:    Size  Location     Type
  5427 ;;		None
  5428 ;; Auto vars:     Size  Location     Type
  5429 ;;		None
  5430 ;; Return value:  Size  Location     Type
  5431 ;;		None               void
  5432 ;; Registers used:
  5433 ;;		wreg
  5434 ;; Tracked objects:
  5435 ;;		On entry : 0/0
  5436 ;;		On exit  : 0/0
  5437 ;;		Unchanged: 0/0
  5438 ;; Data sizes:     COMMON   BANK0   BANK1   BANK2   BANK3   BANK4   BANK5   BANK6   BANK7   BANK8   BANK9  BANK10  BANK1
      +1  BANK12
  5439 ;;      Params:         0       0       0       0       0       0       0       0       0       0       0       0       
      +0       0
  5440 ;;      Locals:         0       0       0       0       0       0       0       0       0       0       0       0       
      +0       0
  5441 ;;      Temps:          0       0       0       0       0       0       0       0       0       0       0       0       
      +0       0
  5442 ;;      Totals:         0       0       0       0       0       0       0       0       0       0       0       0       
      +0       0
  5443 ;;Total ram usage:        0 bytes
  5444 ;; Hardware stack levels used:    1
  5445 ;; Hardware stack levels required when called:    4
  5446 ;; This function calls:
  5447 ;;		Nothing
  5448 ;; This function is called by:
  5449 ;;		_SYSTEM_Initialize
  5450 ;; This function uses a non-reentrant model
  5451 ;;
  5452                           
  5453                           
  5454                           ;psect for function _DAC1_Initialize
  5455  0392                     _DAC1_Initialize:	
  5456                           
  5457                           ;dac1.c: 60: DAC1CON0 = 0xA0;
  5458                           
  5459                           ;incstack = 0
  5460                           ; Regs used in _DAC1_Initialize: [wreg]
  5461  0392  30A0               	movlw	160
  5462  0393  0022               	movlb	2	; select bank2
  5463  0394  0098               	movwf	24	;volatile
  5464                           
  5465                           ;dac1.c: 62: DAC1CON1 = 0xFF;
  5466  0395  30FF               	movlw	255
  5467  0396  0099               	movwf	25	;volatile
  5468  0397  0008               	return
  5469  0398                     __end_of_DAC1_Initialize:	
  5470                           
  5471                           	psect	text11
  5472  0382                     __ptext11:	
  5473 ;; *************** function _ADC1_Initialize *****************
  5474 ;; Defined at:
  5475 ;;		line 71 in file "mcc_generated_files/adc1.c"
  5476 ;; Parameters:    Size  Location     Type
  5477 ;;		None
  5478 ;; Auto vars:     Size  Location     Type
  5479 ;;		None
  5480 ;; Return value:  Size  Location     Type
  5481 ;;		None               void
  5482 ;; Registers used:
  5483 ;;		wreg, status,2
  5484 ;; Tracked objects:
  5485 ;;		On entry : 0/0
  5486 ;;		On exit  : 0/0
  5487 ;;		Unchanged: 0/0
  5488 ;; Data sizes:     COMMON   BANK0   BANK1   BANK2   BANK3   BANK4   BANK5   BANK6   BANK7   BANK8   BANK9  BANK10  BANK1
      +1  BANK12
  5489 ;;      Params:         0       0       0       0       0       0       0       0       0       0       0       0       
      +0       0
  5490 ;;      Locals:         0       0       0       0       0       0       0       0       0       0       0       0       
      +0       0
  5491 ;;      Temps:          0       0       0       0       0       0       0       0       0       0       0       0       
      +0       0
  5492 ;;      Totals:         0       0       0       0       0       0       0       0       0       0       0       0       
      +0       0
  5493 ;;Total ram usage:        0 bytes
  5494 ;; Hardware stack levels used:    1
  5495 ;; Hardware stack levels required when called:    4
  5496 ;; This function calls:
  5497 ;;		Nothing
  5498 ;; This function is called by:
  5499 ;;		_SYSTEM_Initialize
  5500 ;; This function uses a non-reentrant model
  5501 ;;
  5502                           
  5503                           
  5504                           ;psect for function _ADC1_Initialize
  5505  0382                     _ADC1_Initialize:	
  5506                           
  5507                           ;adc1.c: 75: ADCON0 = 0x01;
  5508                           
  5509                           ;incstack = 0
  5510                           ; Regs used in _ADC1_Initialize: [wreg+status,2]
  5511  0382  3001               	movlw	1
  5512  0383  0021               	movlb	1	; select bank1
  5513  0384  009D               	movwf	29	;volatile
  5514                           
  5515                           ;adc1.c: 78: ADCON1 = 0x50;
  5516  0385  3050               	movlw	80
  5517  0386  009E               	movwf	30	;volatile
  5518                           
  5519                           ;adc1.c: 81: ADCON2 = 0x00;
  5520  0387  019F               	clrf	31	;volatile
  5521                           
  5522                           ;adc1.c: 84: ADRESL = 0x00;
  5523  0388  019B               	clrf	27	;volatile
  5524                           
  5525                           ;adc1.c: 87: ADRESH = 0x00;
  5526  0389  019C               	clrf	28	;volatile
  5527                           
  5528                           ;adc1.c: 90: PIE1bits.ADIE = 1;
  5529  038A  1710               	bsf	16,6	;volatile
  5530  038B  0008               	return
  5531  038C                     __end_of_ADC1_Initialize:	
  5532                           
  5533                           	psect	intentry
  5534  0004                     __pintentry:	
  5535 ;; *************** function _INTERRUPT_InterruptManager *****************
  5536 ;; Defined at:
  5537 ;;		line 52 in file "mcc_generated_files/interrupt_manager.c"
  5538 ;; Parameters:    Size  Location     Type
  5539 ;;		None
  5540 ;; Auto vars:     Size  Location     Type
  5541 ;;		None
  5542 ;; Return value:  Size  Location     Type
  5543 ;;		None               void
  5544 ;; Registers used:
  5545 ;;		wreg, fsr0l, fsr0h, fsr1l, fsr1h, status,2, status,0, pclath, cstack
  5546 ;; Tracked objects:
  5547 ;;		On entry : 0/0
  5548 ;;		On exit  : 0/0
  5549 ;;		Unchanged: 0/0
  5550 ;; Data sizes:     COMMON   BANK0   BANK1   BANK2   BANK3   BANK4   BANK5   BANK6   BANK7   BANK8   BANK9  BANK10  BANK1
      +1  BANK12
  5551 ;;      Params:         0       0       0       0       0       0       0       0       0       0       0       0       
      +0       0
  5552 ;;      Locals:         0       0       0       0       0       0       0       0       0       0       0       0       
      +0       0
  5553 ;;      Temps:          1       0       0       0       0       0       0       0       0       0       0       0       
      +0       0
  5554 ;;      Totals:         1       0       0       0       0       0       0       0       0       0       0       0       
      +0       0
  5555 ;;Total ram usage:        1 bytes
  5556 ;; Hardware stack levels used:    1
  5557 ;; Hardware stack levels required when called:    3
  5558 ;; This function calls:
  5559 ;;		_ADC1_ISR
  5560 ;;		_TMR1_ISR
  5561 ;; This function is called by:
  5562 ;;		Interrupt level 1
  5563 ;; This function uses a non-reentrant model
  5564 ;;
  5565                           
  5566  0004                     _INTERRUPT_InterruptManager:	
  5567                           
  5568                           ;incstack = 0
  5569                           ; Regs used in _INTERRUPT_InterruptManager: [wreg-fsr1h+status,2+status,0+pclath+cstack]
  5570  0004  147E               	bsf	126,0	;set compiler interrupt flag (level 1)
  5571  0005  3180               	pagesel	$
  5572  0006  0020               	movlb	0	; select bank0
  5573  0007  087F               	movf	127,w
  5574  0008  00F3               	movwf	??_INTERRUPT_InterruptManager
  5575                           
  5576                           ;interrupt_manager.c: 54: if (PIE1bits.TMR1IE == 1 && PIR1bits.TMR1IF == 1) {
  5577  0009  0021               	movlb	1	; select bank1
  5578  000A  1C10               	btfss	16,0	;volatile
  5579  000B  2813               	goto	i1l231
  5580  000C  0020               	movlb	0	; select bank0
  5581  000D  1C10               	btfss	16,0	;volatile
  5582  000E  2813               	goto	i1l231
  5583                           
  5584                           ;interrupt_manager.c: 55: TMR1_ISR();
  5585  000F  3183  2340  3180   	fcall	_TMR1_ISR
  5586                           
  5587                           ;interrupt_manager.c: 56: } else if (PIE1bits.ADIE == 1 && PIR1bits.ADIF == 1) {
  5588  0012  281B               	goto	i1l235
  5589  0013                     i1l231:	
  5590  0013  0021               	movlb	1	; select bank1
  5591  0014  1F10               	btfss	16,6	;volatile
  5592  0015  281B               	goto	i1l235
  5593  0016  0020               	movlb	0	; select bank0
  5594  0017  1F10               	btfss	16,6	;volatile
  5595  0018  281B               	goto	i1l235
  5596                           
  5597                           ;interrupt_manager.c: 57: ADC1_ISR();
  5598  0019  3183  239E         	fcall	_ADC1_ISR
  5599  001B                     i1l235:	
  5600                           ;interrupt_manager.c: 58: } else {
  5601                           
  5602  001B  0873               	movf	??_INTERRUPT_InterruptManager,w
  5603  001C  0020               	movlb	0	; select bank0
  5604  001D  00FF               	movwf	127
  5605  001E  107E               	bcf	126,0	;clear compiler interrupt flag (level 1)
  5606  001F  0009               	retfie
  5607  0020                     __end_of_INTERRUPT_InterruptManager:	
  5608                           
  5609                           	psect	text13
  5610  0340                     __ptext13:	
  5611 ;; *************** function _TMR1_ISR *****************
  5612 ;; Defined at:
  5613 ;;		line 148 in file "mcc_generated_files/tmr1.c"
  5614 ;; Parameters:    Size  Location     Type
  5615 ;;		None
  5616 ;; Auto vars:     Size  Location     Type
  5617 ;;		None
  5618 ;; Return value:  Size  Location     Type
  5619 ;;		None               void
  5620 ;; Registers used:
  5621 ;;		wreg, status,2, status,0, pclath, cstack
  5622 ;; Tracked objects:
  5623 ;;		On entry : 0/0
  5624 ;;		On exit  : 0/0
  5625 ;;		Unchanged: 0/0
  5626 ;; Data sizes:     COMMON   BANK0   BANK1   BANK2   BANK3   BANK4   BANK5   BANK6   BANK7   BANK8   BANK9  BANK10  BANK1
      +1  BANK12
  5627 ;;      Params:         0       0       0       0       0       0       0       0       0       0       0       0       
      +0       0
  5628 ;;      Locals:         0       0       0       0       0       0       0       0       0       0       0       0       
      +0       0
  5629 ;;      Temps:          0       0       0       0       0       0       0       0       0       0       0       0       
      +0       0
  5630 ;;      Totals:         0       0       0       0       0       0       0       0       0       0       0       0       
      +0       0
  5631 ;;Total ram usage:        0 bytes
  5632 ;; Hardware stack levels used:    1
  5633 ;; Hardware stack levels required when called:    1
  5634 ;; This function calls:
  5635 ;;		_ADC1_StartConversion
  5636 ;;		_UpdateTick
  5637 ;; This function is called by:
  5638 ;;		_INTERRUPT_InterruptManager
  5639 ;; This function uses a non-reentrant model
  5640 ;;
  5641                           
  5642                           
  5643                           ;psect for function _TMR1_ISR
  5644  0340                     _TMR1_ISR:	
  5645                           
  5646                           ;tmr1.c: 152: PIR1bits.TMR1IF = 0;
  5647                           
  5648                           ;incstack = 0
  5649                           ; Regs used in _TMR1_ISR: [wreg+status,2+status,0+pclath+cstack]
  5650  0340  0020               	movlb	0	; select bank0
  5651  0341  1010               	bcf	16,0	;volatile
  5652                           
  5653                           ;tmr1.c: 154: TMR1H = (timer1ReloadVal >> 8) + TMR1H ;
  5654  0342  0877               	movf	_timer1ReloadVal+1,w	;volatile
  5655  0343  0717               	addwf	23,w
  5656  0344  0097               	movwf	23	;volatile
  5657                           
  5658                           ;tmr1.c: 155: TMR1L = timer1ReloadVal + TMR1L;
  5659  0345  0816               	movf	22,w
  5660  0346  0776               	addwf	_timer1ReloadVal,w	;volatile
  5661  0347  0096               	movwf	22	;volatile
  5662                           
  5663                           ;tmr1.c: 158: UpdateTick();
  5664  0348  3183  234F  3183   	fcall	_UpdateTick
  5665                           
  5666                           ;tmr1.c: 161: ADC1_StartConversion(1);
  5667  034B  3001               	movlw	1
  5668  034C  3183  235E         	fcall	_ADC1_StartConversion
  5669  034E  0008               	return
  5670  034F                     __end_of_TMR1_ISR:	
  5671                           
  5672                           	psect	text14
  5673  034F                     __ptext14:	
  5674 ;; *************** function _UpdateTick *****************
  5675 ;; Defined at:
  5676 ;;		line 99 in file "main.c"
  5677 ;; Parameters:    Size  Location     Type
  5678 ;;		None
  5679 ;; Auto vars:     Size  Location     Type
  5680 ;;		None
  5681 ;; Return value:  Size  Location     Type
  5682 ;;		None               void
  5683 ;; Registers used:
  5684 ;;		wreg, status,2, status,0
  5685 ;; Tracked objects:
  5686 ;;		On entry : 0/0
  5687 ;;		On exit  : 0/0
  5688 ;;		Unchanged: 0/0
  5689 ;; Data sizes:     COMMON   BANK0   BANK1   BANK2   BANK3   BANK4   BANK5   BANK6   BANK7   BANK8   BANK9  BANK10  BANK1
      +1  BANK12
  5690 ;;      Params:         0       0       0       0       0       0       0       0       0       0       0       0       
      +0       0
  5691 ;;      Locals:         0       0       0       0       0       0       0       0       0       0       0       0       
      +0       0
  5692 ;;      Temps:          1       0       0       0       0       0       0       0       0       0       0       0       
      +0       0
  5693 ;;      Totals:         1       0       0       0       0       0       0       0       0       0       0       0       
      +0       0
  5694 ;;Total ram usage:        1 bytes
  5695 ;; Hardware stack levels used:    1
  5696 ;; This function calls:
  5697 ;;		Nothing
  5698 ;; This function is called by:
  5699 ;;		_TMR1_ISR
  5700 ;; This function uses a non-reentrant model
  5701 ;;
  5702                           
  5703                           
  5704                           ;psect for function _UpdateTick
  5705  034F                     _UpdateTick:	
  5706                           
  5707                           ;main.c: 101: timeQuanta++;
  5708                           
  5709                           ;incstack = 0
  5710                           ; Regs used in _UpdateTick: [wreg+status,2+status,0]
  5711  034F  3001               	movlw	1
  5712  0350  00F0               	movwf	??_UpdateTick
  5713  0351  0870               	movf	??_UpdateTick,w
  5714  0352  07F9               	addwf	_timeQuanta,f
  5715                           
  5716                           ;main.c: 102: if(timeQuanta > 8)
  5717  0353  3009               	movlw	9
  5718  0354  0279               	subwf	_timeQuanta,w
  5719  0355  1C03               	skipc
  5720  0356  0008               	return
  5721                           
  5722                           ;main.c: 103: {
  5723                           ;main.c: 104: timeQuanta = 0;
  5724  0357  01F9               	clrf	_timeQuanta
  5725                           
  5726                           ;main.c: 105: tickCounter++;
  5727  0358  3001               	movlw	1
  5728  0359  0020               	movlb	0	; select bank0
  5729  035A  07C3               	addwf	_tickCounter,f
  5730  035B  3000               	movlw	0
  5731  035C  3DC4               	addwfc	_tickCounter+1,f
  5732  035D  0008               	return
  5733  035E                     __end_of_UpdateTick:	
  5734                           
  5735                           	psect	text15
  5736  035E                     __ptext15:	
  5737 ;; *************** function _ADC1_StartConversion *****************
  5738 ;; Defined at:
  5739 ;;		line 93 in file "mcc_generated_files/adc1.c"
  5740 ;; Parameters:    Size  Location     Type
  5741 ;;  channel         1    wreg     enum E11828
  5742 ;; Auto vars:     Size  Location     Type
  5743 ;;  channel         1    1[COMMON] enum E11828
  5744 ;; Return value:  Size  Location     Type
  5745 ;;		None               void
  5746 ;; Registers used:
  5747 ;;		wreg, status,2, status,0
  5748 ;; Tracked objects:
  5749 ;;		On entry : 0/0
  5750 ;;		On exit  : 0/0
  5751 ;;		Unchanged: 0/0
  5752 ;; Data sizes:     COMMON   BANK0   BANK1   BANK2   BANK3   BANK4   BANK5   BANK6   BANK7   BANK8   BANK9  BANK10  BANK1
      +1  BANK12
  5753 ;;      Params:         0       0       0       0       0       0       0       0       0       0       0       0       
      +0       0
  5754 ;;      Locals:         1       0       0       0       0       0       0       0       0       0       0       0       
      +0       0
  5755 ;;      Temps:          1       0       0       0       0       0       0       0       0       0       0       0       
      +0       0
  5756 ;;      Totals:         2       0       0       0       0       0       0       0       0       0       0       0       
      +0       0
  5757 ;;Total ram usage:        2 bytes
  5758 ;; Hardware stack levels used:    1
  5759 ;; This function calls:
  5760 ;;		Nothing
  5761 ;; This function is called by:
  5762 ;;		_TMR1_ISR
  5763 ;; This function uses a non-reentrant model
  5764 ;;
  5765                           
  5766                           
  5767                           ;psect for function _ADC1_StartConversion
  5768  035E                     _ADC1_StartConversion:	
  5769                           
  5770                           ;incstack = 0
  5771                           ; Regs used in _ADC1_StartConversion: [wreg+status,2+status,0]
  5772                           ;ADC1_StartConversion@channel stored from wreg
  5773  035E  00F1               	movwf	ADC1_StartConversion@channel
  5774                           
  5775                           ;adc1.c: 95: ADCON0bits.CHS = channel;
  5776  035F  0871               	movf	ADC1_StartConversion@channel,w
  5777  0360  00F0               	movwf	??_ADC1_StartConversion
  5778  0361  0DF0               	rlf	??_ADC1_StartConversion,f
  5779  0362  0DF0               	rlf	??_ADC1_StartConversion,f
  5780  0363  0021               	movlb	1	; select bank1
  5781  0364  081D               	movf	29,w	;volatile
  5782  0365  0670               	xorwf	??_ADC1_StartConversion,w
  5783  0366  3983               	andlw	-125
  5784  0367  0670               	xorwf	??_ADC1_StartConversion,w
  5785  0368  009D               	movwf	29	;volatile
  5786                           
  5787                           ;adc1.c: 98: ADCON0bits.ADON = 1;
  5788  0369  141D               	bsf	29,0	;volatile
  5789                           
  5790                           ;adc1.c: 101: ADCON0bits.GO_nDONE = 1;
  5791  036A  149D               	bsf	29,1	;volatile
  5792  036B  0008               	return
  5793  036C                     __end_of_ADC1_StartConversion:	
  5794                           
  5795                           	psect	text16
  5796  039E                     __ptext16:	
  5797 ;; *************** function _ADC1_ISR *****************
  5798 ;; Defined at:
  5799 ;;		line 135 in file "mcc_generated_files/adc1.c"
  5800 ;; Parameters:    Size  Location     Type
  5801 ;;		None
  5802 ;; Auto vars:     Size  Location     Type
  5803 ;;		None
  5804 ;; Return value:  Size  Location     Type
  5805 ;;		None               void
  5806 ;; Registers used:
  5807 ;;		wreg, fsr0l, fsr0h, fsr1l, fsr1h, status,2, status,0, pclath, cstack
  5808 ;; Tracked objects:
  5809 ;;		On entry : 0/0
  5810 ;;		On exit  : 0/0
  5811 ;;		Unchanged: 0/0
  5812 ;; Data sizes:     COMMON   BANK0   BANK1   BANK2   BANK3   BANK4   BANK5   BANK6   BANK7   BANK8   BANK9  BANK10  BANK1
      +1  BANK12
  5813 ;;      Params:         0       0       0       0       0       0       0       0       0       0       0       0       
      +0       0
  5814 ;;      Locals:         0       0       0       0       0       0       0       0       0       0       0       0       
      +0       0
  5815 ;;      Temps:          0       0       0       0       0       0       0       0       0       0       0       0       
      +0       0
  5816 ;;      Totals:         0       0       0       0       0       0       0       0       0       0       0       0       
      +0       0
  5817 ;;Total ram usage:        0 bytes
  5818 ;; Hardware stack levels used:    1
  5819 ;; Hardware stack levels required when called:    2
  5820 ;; This function calls:
  5821 ;;		_SignalProcessEngine
  5822 ;; This function is called by:
  5823 ;;		_INTERRUPT_InterruptManager
  5824 ;; This function uses a non-reentrant model
  5825 ;;
  5826                           
  5827                           
  5828                           ;psect for function _ADC1_ISR
  5829  039E                     _ADC1_ISR:	
  5830                           
  5831                           ;adc1.c: 137: PIR1bits.ADIF = 0;
  5832                           
  5833                           ;incstack = 0
  5834                           ; Regs used in _ADC1_ISR: [wreg-fsr1h+status,2+status,0+pclath+cstack]
  5835  039E  0020               	movlb	0	; select bank0
  5836  039F  1310               	bcf	16,6	;volatile
  5837                           
  5838                           ;adc1.c: 140: SignalProcessEngine();
  5839  03A0  3181  2135         	fcall	_SignalProcessEngine
  5840  03A2  0008               	return
  5841  03A3                     __end_of_ADC1_ISR:	
  5842                           
  5843                           	psect	text17
  5844  0135                     __ptext17:	
  5845 ;; *************** function _SignalProcessEngine *****************
  5846 ;; Defined at:
  5847 ;;		line 117 in file "main.c"
  5848 ;; Parameters:    Size  Location     Type
  5849 ;;		None
  5850 ;; Auto vars:     Size  Location     Type
  5851 ;;  dacResult       1    2[COMMON] unsigned char 
  5852 ;; Return value:  Size  Location     Type
  5853 ;;		None               void
  5854 ;; Registers used:
  5855 ;;		wreg, fsr0l, fsr0h, fsr1l, fsr1h, status,2, status,0, pclath, cstack
  5856 ;; Tracked objects:
  5857 ;;		On entry : 0/0
  5858 ;;		On exit  : 0/0
  5859 ;;		Unchanged: 0/0
  5860 ;; Data sizes:     COMMON   BANK0   BANK1   BANK2   BANK3   BANK4   BANK5   BANK6   BANK7   BANK8   BANK9  BANK10  BANK1
      +1  BANK12
  5861 ;;      Params:         0       0       0       0       0       0       0       0       0       0       0       0       
      +0       0
  5862 ;;      Locals:         1       0       0       0       0       0       0       0       0       0       0       0       
      +0       0
  5863 ;;      Temps:          0      18       0       0       0       0       0       0       0       0       0       0       
      +0       0
  5864 ;;      Totals:         1      18       0       0       0       0       0       0       0       0       0       0       
      +0       0
  5865 ;;Total ram usage:       19 bytes
  5866 ;; Hardware stack levels used:    1
  5867 ;; Hardware stack levels required when called:    1
  5868 ;; This function calls:
  5869 ;;		_ADC1_GetConversionResult
  5870 ;;		_DAC1_SetOutput
  5871 ;; This function is called by:
  5872 ;;		_ADC1_ISR
  5873 ;; This function uses a non-reentrant model
  5874 ;;
  5875                           
  5876                           
  5877                           ;psect for function _SignalProcessEngine
  5878  0135                     _SignalProcessEngine:	
  5879                           
  5880                           ;main.c: 120: uint8_t dacResult;
  5881                           ;main.c: 128: adcBuffer.pingpongBuffer[adcBuffer.activeBuffer][adcBuffer.activeBufferCur
      +                          rentPosition] =
  5882                           ;main.c: 129: (ADC1_GetConversionResult() >> 1);
  5883                           
  5884                           ;incstack = 0
  5885                           ; Regs used in _SignalProcessEngine: [wreg-fsr1h+status,2+status,0+pclath+cstack]
  5886  0135  3183  2398  3181   	fcall	_ADC1_GetConversionResult
  5887  0138  0870               	movf	?_ADC1_GetConversionResult,w
  5888  0139  0020               	movlb	0	; select bank0
  5889  013A  00A0               	movwf	??_SignalProcessEngine
  5890  013B  0871               	movf	?_ADC1_GetConversionResult+1,w
  5891  013C  00A1               	movwf	??_SignalProcessEngine+1
  5892  013D  36A1               	lsrf	??_SignalProcessEngine+1,f
  5893  013E  0CA0               	rrf	??_SignalProcessEngine,f
  5894  013F  30DD               	movlw	221
  5895  0140  0086               	movwf	6
  5896  0141  3022               	movlw	34
  5897  0142  0087               	movwf	7
  5898  0143  0801               	movf	1,w
  5899  0144  00A2               	movwf	??_SignalProcessEngine+2
  5900  0145  01A3               	clrf	??_SignalProcessEngine+3
  5901  0146  35A2               	lslf	??_SignalProcessEngine+2,f
  5902  0147  0DA3               	rlf	??_SignalProcessEngine+3,f
  5903  0148  30DC               	movlw	220
  5904  0149  0086               	movwf	6
  5905  014A  3022               	movlw	34
  5906  014B  0087               	movwf	7
  5907  014C  0801               	movf	1,w
  5908  014D  00A4               	movwf	??_SignalProcessEngine+4
  5909  014E  01A5               	clrf	??_SignalProcessEngine+5
  5910  014F  3007               	movlw	7
  5911  0150                     u34_25:	
  5912  0150  35A4               	lslf	??_SignalProcessEngine+4,f
  5913  0151  0DA5               	rlf	??_SignalProcessEngine+5,f
  5914  0152  0B89               	decfsz	9,f
  5915  0153  2950               	goto	u34_25
  5916  0154  30DC               	movlw	220
  5917  0155  00A6               	movwf	??_SignalProcessEngine+6
  5918  0156  3021               	movlw	33
  5919  0157  00A7               	movwf	??_SignalProcessEngine+7
  5920  0158  0824               	movf	??_SignalProcessEngine+4,w
  5921  0159  0726               	addwf	??_SignalProcessEngine+6,w
  5922  015A  00A8               	movwf	??_SignalProcessEngine+8
  5923  015B  0825               	movf	??_SignalProcessEngine+5,w
  5924  015C  3D27               	addwfc	??_SignalProcessEngine+7,w
  5925  015D  00A9               	movwf	??_SignalProcessEngine+9
  5926  015E  0822               	movf	??_SignalProcessEngine+2,w
  5927  015F  0728               	addwf	??_SignalProcessEngine+8,w
  5928  0160  0086               	movwf	6
  5929  0161  0823               	movf	??_SignalProcessEngine+3,w
  5930  0162  3D29               	addwfc	??_SignalProcessEngine+9,w
  5931  0163  0087               	movwf	7
  5932  0164  0820               	movf	??_SignalProcessEngine,w
  5933  0165  3FC0               	movwi [0]fsr1
  5934  0166  0821               	movf	??_SignalProcessEngine+1,w
  5935  0167  3FC1               	movwi [1]fsr1
  5936                           
  5937                           ;main.c: 132: dacResult = (uint8_t)((32768 + dacBuffer.pingpongBuffer[dacBuffer.activeBu
      +                          ffer][dacBuffer.activeBufferCurrentPosition]) >> 8);
  5938  0168  3000               	movlw	0
  5939  0169  00A0               	movwf	??_SignalProcessEngine
  5940  016A  3080               	movlw	128
  5941  016B  00A1               	movwf	??_SignalProcessEngine+1
  5942  016C  3000               	movlw	0
  5943  016D  00A2               	movwf	??_SignalProcessEngine+2
  5944  016E  3000               	movlw	0
  5945  016F  00A3               	movwf	??_SignalProcessEngine+3
  5946  0170  30DF               	movlw	223
  5947  0171  0086               	movwf	6
  5948  0172  3023               	movlw	35
  5949  0173  0087               	movwf	7
  5950  0174  0801               	movf	1,w
  5951  0175  00A4               	movwf	??_SignalProcessEngine+4
  5952  0176  01A5               	clrf	??_SignalProcessEngine+5
  5953  0177  35A4               	lslf	??_SignalProcessEngine+4,f
  5954  0178  0DA5               	rlf	??_SignalProcessEngine+5,f
  5955  0179  30DE               	movlw	222
  5956  017A  0086               	movwf	6
  5957  017B  3023               	movlw	35
  5958  017C  0087               	movwf	7
  5959  017D  0801               	movf	1,w
  5960  017E  00A6               	movwf	??_SignalProcessEngine+6
  5961  017F  01A7               	clrf	??_SignalProcessEngine+7
  5962  0180  3007               	movlw	7
  5963  0181                     u35_25:	
  5964  0181  35A6               	lslf	??_SignalProcessEngine+6,f
  5965  0182  0DA7               	rlf	??_SignalProcessEngine+7,f
  5966  0183  0B89               	decfsz	9,f
  5967  0184  2981               	goto	u35_25
  5968  0185  30DE               	movlw	222
  5969  0186  00A8               	movwf	??_SignalProcessEngine+8
  5970  0187  3022               	movlw	34
  5971  0188  00A9               	movwf	??_SignalProcessEngine+9
  5972  0189  0826               	movf	??_SignalProcessEngine+6,w
  5973  018A  0728               	addwf	??_SignalProcessEngine+8,w
  5974  018B  00AA               	movwf	??_SignalProcessEngine+10
  5975  018C  0827               	movf	??_SignalProcessEngine+7,w
  5976  018D  3D29               	addwfc	??_SignalProcessEngine+9,w
  5977  018E  00AB               	movwf	??_SignalProcessEngine+11
  5978  018F  082A               	movf	??_SignalProcessEngine+10,w
  5979  0190  0724               	addwf	??_SignalProcessEngine+4,w
  5980  0191  0084               	movwf	4
  5981  0192  082B               	movf	??_SignalProcessEngine+11,w
  5982  0193  3D25               	addwfc	??_SignalProcessEngine+5,w
  5983  0194  0085               	movwf	5
  5984  0195  3F00               	moviw [0]fsr0
  5985  0196  00AC               	movwf	??_SignalProcessEngine+12
  5986  0197  3F01               	moviw [1]fsr0
  5987  0198  00AD               	movwf	??_SignalProcessEngine+13
  5988  0199  01AE               	clrf	??_SignalProcessEngine+14
  5989  019A  01AF               	clrf	??_SignalProcessEngine+15
  5990  019B  082C               	movf	??_SignalProcessEngine+12,w
  5991  019C  07A0               	addwf	??_SignalProcessEngine,f
  5992  019D  082D               	movf	??_SignalProcessEngine+13,w
  5993  019E  3DA1               	addwfc	??_SignalProcessEngine+1,f
  5994  019F  082E               	movf	??_SignalProcessEngine+14,w
  5995  01A0  3DA2               	addwfc	??_SignalProcessEngine+2,f
  5996  01A1  082F               	movf	??_SignalProcessEngine+15,w
  5997  01A2  3DA3               	addwfc	??_SignalProcessEngine+3,f
  5998  01A3  3008               	movlw	8
  5999  01A4  00B0               	movwf	??_SignalProcessEngine+16
  6000  01A5                     u36_25:	
  6001  01A5  37A3               	asrf	??_SignalProcessEngine+3,f
  6002  01A6  0CA2               	rrf	??_SignalProcessEngine+2,f
  6003  01A7  0CA1               	rrf	??_SignalProcessEngine+1,f
  6004  01A8  0CA0               	rrf	??_SignalProcessEngine,f
  6005  01A9  0BB0               	decfsz	??_SignalProcessEngine+16,f
  6006  01AA  29A5               	goto	u36_25
  6007  01AB  0820               	movf	??_SignalProcessEngine,w
  6008  01AC  00B1               	movwf	??_SignalProcessEngine+17
  6009  01AD  0831               	movf	??_SignalProcessEngine+17,w
  6010  01AE  00F2               	movwf	SignalProcessEngine@dacResult
  6011                           
  6012                           ;main.c: 133: DAC1_SetOutput(dacResult);
  6013  01AF  0872               	movf	SignalProcessEngine@dacResult,w
  6014  01B0  3183  23A3  3181   	fcall	_DAC1_SetOutput
  6015                           
  6016                           ;main.c: 138: adcBuffer.activeBufferCurrentPosition++;
  6017  01B3  3001               	movlw	1
  6018  01B4  0020               	movlb	0	; select bank0
  6019  01B5  00A0               	movwf	??_SignalProcessEngine
  6020  01B6  30DD               	movlw	221
  6021  01B7  0086               	movwf	6
  6022  01B8  3022               	movlw	34
  6023  01B9  0087               	movwf	7
  6024  01BA  0820               	movf	??_SignalProcessEngine,w
  6025  01BB  0781               	addwf	1,f
  6026                           
  6027                           ;main.c: 139: if(adcBuffer.activeBufferCurrentPosition == 64)
  6028  01BC  30DD               	movlw	221
  6029  01BD  0086               	movwf	6
  6030  01BE  3022               	movlw	34
  6031  01BF  0087               	movwf	7
  6032  01C0  3040               	movlw	64
  6033  01C1  0601               	xorwf	1,w
  6034  01C2  1D03               	btfss	3,2
  6035  01C3  29D3               	goto	i1l1083
  6036                           
  6037                           ;main.c: 140: {
  6038                           ;main.c: 141: adcBuffer.activeBuffer ^= 0x01;
  6039  01C4  3001               	movlw	1
  6040  01C5  00A0               	movwf	??_SignalProcessEngine
  6041  01C6  30DC               	movlw	220
  6042  01C7  0086               	movwf	6
  6043  01C8  3022               	movlw	34
  6044  01C9  0087               	movwf	7
  6045  01CA  0820               	movf	??_SignalProcessEngine,w
  6046  01CB  0681               	xorwf	1,f
  6047                           
  6048                           ;main.c: 142: adcBuffer.activeBufferCurrentPosition = 0;
  6049  01CC  30DD               	movlw	221
  6050  01CD  0086               	movwf	6
  6051  01CE  3022               	movlw	34
  6052  01CF  0087               	movwf	7
  6053  01D0  0181               	clrf	1
  6054                           
  6055                           ;main.c: 147: shouldFilter = 1;
  6056  01D1  01C7               	clrf	_shouldFilter
  6057  01D2  0AC7               	incf	_shouldFilter,f
  6058  01D3                     i1l1083:	
  6059                           
  6060                           ;main.c: 150: }
  6061                           ;main.c: 155: dacBuffer.activeBufferCurrentPosition++;
  6062  01D3  3001               	movlw	1
  6063  01D4  00A0               	movwf	??_SignalProcessEngine
  6064  01D5  30DF               	movlw	223
  6065  01D6  0086               	movwf	6
  6066  01D7  3023               	movlw	35
  6067  01D8  0087               	movwf	7
  6068  01D9  0820               	movf	??_SignalProcessEngine,w
  6069  01DA  0781               	addwf	1,f
  6070                           
  6071                           ;main.c: 156: if(dacBuffer.activeBufferCurrentPosition == 64)
  6072  01DB  30DF               	movlw	223
  6073  01DC  0086               	movwf	6
  6074  01DD  3023               	movlw	35
  6075  01DE  0087               	movwf	7
  6076  01DF  3040               	movlw	64
  6077  01E0  0601               	xorwf	1,w
  6078  01E1  1D03               	btfss	3,2
  6079  01E2  0008               	return
  6080                           
  6081                           ;main.c: 157: {
  6082                           ;main.c: 158: dacBuffer.activeBuffer ^= 0x01;
  6083  01E3  3001               	movlw	1
  6084  01E4  00A0               	movwf	??_SignalProcessEngine
  6085  01E5  30DE               	movlw	222
  6086  01E6  0086               	movwf	6
  6087  01E7  3023               	movlw	35
  6088  01E8  0087               	movwf	7
  6089  01E9  0820               	movf	??_SignalProcessEngine,w
  6090  01EA  0681               	xorwf	1,f
  6091                           
  6092                           ;main.c: 159: dacBuffer.activeBufferCurrentPosition = 0;
  6093  01EB  30DF               	movlw	223
  6094  01EC  0086               	movwf	6
  6095  01ED  3023               	movlw	35
  6096  01EE  0087               	movwf	7
  6097  01EF  0181               	clrf	1
  6098  01F0  0008               	return
  6099  01F1                     __end_of_SignalProcessEngine:	
  6100                           
  6101                           	psect	text18
  6102  03A3                     __ptext18:	
  6103 ;; *************** function _DAC1_SetOutput *****************
  6104 ;; Defined at:
  6105 ;;		line 72 in file "mcc_generated_files/dac1.c"
  6106 ;; Parameters:    Size  Location     Type
  6107 ;;  inputData       1    wreg     unsigned char 
  6108 ;; Auto vars:     Size  Location     Type
  6109 ;;  inputData       1    0[COMMON] unsigned char 
  6110 ;; Return value:  Size  Location     Type
  6111 ;;		None               void
  6112 ;; Registers used:
  6113 ;;		wreg
  6114 ;; Tracked objects:
  6115 ;;		On entry : 0/0
  6116 ;;		On exit  : 0/0
  6117 ;;		Unchanged: 0/0
  6118 ;; Data sizes:     COMMON   BANK0   BANK1   BANK2   BANK3   BANK4   BANK5   BANK6   BANK7   BANK8   BANK9  BANK10  BANK1
      +1  BANK12
  6119 ;;      Params:         0       0       0       0       0       0       0       0       0       0       0       0       
      +0       0
  6120 ;;      Locals:         1       0       0       0       0       0       0       0       0       0       0       0       
      +0       0
  6121 ;;      Temps:          0       0       0       0       0       0       0       0       0       0       0       0       
      +0       0
  6122 ;;      Totals:         1       0       0       0       0       0       0       0       0       0       0       0       
      +0       0
  6123 ;;Total ram usage:        1 bytes
  6124 ;; Hardware stack levels used:    1
  6125 ;; This function calls:
  6126 ;;		Nothing
  6127 ;; This function is called by:
  6128 ;;		_SignalProcessEngine
  6129 ;; This function uses a non-reentrant model
  6130 ;;
  6131                           
  6132                           
  6133                           ;psect for function _DAC1_SetOutput
  6134  03A3                     _DAC1_SetOutput:	
  6135                           
  6136                           ;incstack = 0
  6137                           ; Regs used in _DAC1_SetOutput: [wreg]
  6138                           ;DAC1_SetOutput@inputData stored from wreg
  6139  03A3  00F0               	movwf	DAC1_SetOutput@inputData
  6140                           
  6141                           ;dac1.c: 73: DAC1CON1 = inputData;
  6142  03A4  0870               	movf	DAC1_SetOutput@inputData,w
  6143  03A5  0022               	movlb	2	; select bank2
  6144  03A6  0099               	movwf	25	;volatile
  6145  03A7  0008               	return
  6146  03A8                     __end_of_DAC1_SetOutput:	
  6147                           
  6148                           	psect	text19
  6149  0398                     __ptext19:	
  6150 ;; *************** function _ADC1_GetConversionResult *****************
  6151 ;; Defined at:
  6152 ;;		line 109 in file "mcc_generated_files/adc1.c"
  6153 ;; Parameters:    Size  Location     Type
  6154 ;;		None
  6155 ;; Auto vars:     Size  Location     Type
  6156 ;;		None
  6157 ;; Return value:  Size  Location     Type
  6158 ;;                  2    0[COMMON] unsigned int 
  6159 ;; Registers used:
  6160 ;;		wreg
  6161 ;; Tracked objects:
  6162 ;;		On entry : 0/0
  6163 ;;		On exit  : 0/0
  6164 ;;		Unchanged: 0/0
  6165 ;; Data sizes:     COMMON   BANK0   BANK1   BANK2   BANK3   BANK4   BANK5   BANK6   BANK7   BANK8   BANK9  BANK10  BANK1
      +1  BANK12
  6166 ;;      Params:         2       0       0       0       0       0       0       0       0       0       0       0       
      +0       0
  6167 ;;      Locals:         0       0       0       0       0       0       0       0       0       0       0       0       
      +0       0
  6168 ;;      Temps:          0       0       0       0       0       0       0       0       0       0       0       0       
      +0       0
  6169 ;;      Totals:         2       0       0       0       0       0       0       0       0       0       0       0       
      +0       0
  6170 ;;Total ram usage:        2 bytes
  6171 ;; Hardware stack levels used:    1
  6172 ;; This function calls:
  6173 ;;		Nothing
  6174 ;; This function is called by:
  6175 ;;		_SignalProcessEngine
  6176 ;; This function uses a non-reentrant model
  6177 ;;
  6178                           
  6179                           
  6180                           ;psect for function _ADC1_GetConversionResult
  6181  0398                     _ADC1_GetConversionResult:	
  6182                           
  6183                           ;adc1.c: 111: return ((ADRESH << 8) + ADRESL);
  6184                           
  6185                           ;incstack = 0
  6186                           ; Regs used in _ADC1_GetConversionResult: [wreg]
  6187  0398  0021               	movlb	1	; select bank1
  6188  0399  081C               	movf	28,w	;volatile
  6189  039A  00F1               	movwf	?_ADC1_GetConversionResult+1
  6190  039B  081B               	movf	27,w	;volatile
  6191  039C  00F0               	movwf	?_ADC1_GetConversionResult
  6192  039D  0008               	return
  6193  039E                     __end_of_ADC1_GetConversionResult:	
  6194  007E                     btemp	set	126	;btemp
  6195  007E                     int$flags	set	126
  6196  007E                     wtemp	set	126
  6197  007E                     wtemp0	set	126
  6198  0080                     wtemp1	set	128
  6199  0082                     wtemp2	set	130
  6200  0084                     wtemp3	set	132
  6201  0086                     wtemp4	set	134
  6202  0088                     wtemp5	set	136
  6203  007F                     wtemp6	set	127
  6204  007E                     ttemp	set	126
  6205  007E                     ttemp0	set	126
  6206  0081                     ttemp1	set	129
  6207  0084                     ttemp2	set	132
  6208  0087                     ttemp3	set	135
  6209  007F                     ttemp4	set	127
  6210  007E                     ltemp	set	126
  6211  007E                     ltemp0	set	126
  6212  0082                     ltemp1	set	130
  6213  0086                     ltemp2	set	134
  6214  0080                     ltemp3	set	128


Data Sizes:
    Strings     0
    Constant    10
    Data        0
    BSS         29
    Persistent  2
    Stack       0

Auto Spaces:
    Space          Size  Autos    Used
    COMMON           14      6      10
    BANK0            80     35      62
    BANK1            80      0       0
    BANK2            80      0       0
    BANK3            80      0       0
    BANK4            80      0       0
    BANK5            76      0       0
    BANK6             0      0       0
    BANK7             0      0       0
    BANK8             0      0       0
    BANK9             0      0       0
    BANK10            0      0       0
    BANK11            0      0       0
    BANK12            0      0       0

Pointer List with Targets:

    __builtin_memcpy$1	PTR const void  size(2) Largest target is 8192
		 -> ROM(CODE[8192]), 

    __builtin_memcpy$0	PTR void  size(2) Largest target is 258
		 -> dacBuffer(BIGRAM[258]), adcBuffer(BIGRAM[258]), 

    iirGetOutValue@f	PTR struct __iir size(1) Largest target is 22
		 -> filterMemPool(BANK0[22]), NULL(NULL[0]), 

    iirDoFilter@f	PTR struct __iir size(1) Largest target is 22
		 -> filterMemPool(BANK0[22]), NULL(NULL[0]), 

    iirInit@b_coeffs	PTR const int  size(2) Largest target is 6
		 -> iirCoef_b(CODE[6]), 

    iirInit@a_coeffs	PTR const int  size(2) Largest target is 4
		 -> iirCoef_a(CODE[4]), 

    iirInit@f	PTR struct __iir size(1) Largest target is 22
		 -> filterMemPool(BANK0[22]), 

    sp__iirInit	PTR struct __iir size(1) Largest target is 22
		 -> filterMemPool(BANK0[22]), NULL(NULL[0]), 

    iirStructure	PTR struct __iir size(1) Largest target is 22
		 -> filterMemPool(BANK0[22]), NULL(NULL[0]), 

    sp____builtin_memcpy	PTR void  size(2) Largest target is 4096
		 -> RAM(DATA[4096]), 


Critical Paths under _main in COMMON

    _main->_iirDoFilter
    _main->_iirInit

Critical Paths under _INTERRUPT_InterruptManager in COMMON

    _TMR1_ISR->_ADC1_StartConversion
    _ADC1_ISR->_SignalProcessEngine
    _SignalProcessEngine->_ADC1_GetConversionResult

Critical Paths under _main in BANK0

    _main->_iirInit

Critical Paths under _INTERRUPT_InterruptManager in BANK0

    _ADC1_ISR->_SignalProcessEngine

Critical Paths under _main in BANK1

    None.

Critical Paths under _INTERRUPT_InterruptManager in BANK1

    None.

Critical Paths under _main in BANK2

    None.

Critical Paths under _INTERRUPT_InterruptManager in BANK2

    None.

Critical Paths under _main in BANK3

    None.

Critical Paths under _INTERRUPT_InterruptManager in BANK3

    None.

Critical Paths under _main in BANK4

    None.

Critical Paths under _INTERRUPT_InterruptManager in BANK4

    None.

Critical Paths under _main in BANK5

    None.

Critical Paths under _INTERRUPT_InterruptManager in BANK5

    None.

Critical Paths under _main in BANK6

    None.

Critical Paths under _INTERRUPT_InterruptManager in BANK6

    None.

Critical Paths under _main in BANK7

    None.

Critical Paths under _INTERRUPT_InterruptManager in BANK7

    None.

Critical Paths under _main in BANK8

    None.

Critical Paths under _INTERRUPT_InterruptManager in BANK8

    None.

Critical Paths under _main in BANK9

    None.

Critical Paths under _INTERRUPT_InterruptManager in BANK9

    None.

Critical Paths under _main in BANK10

    None.

Critical Paths under _INTERRUPT_InterruptManager in BANK10

    None.

Critical Paths under _main in BANK11

    None.

Critical Paths under _INTERRUPT_InterruptManager in BANK11

    None.

Critical Paths under _main in BANK12

    None.

Critical Paths under _INTERRUPT_InterruptManager in BANK12

    None.

Call Graph Tables:

 ---------------------------------------------------------------------------------
 (Depth) Function   	        Calls       Base Space   Used Autos Params    Refs
 ---------------------------------------------------------------------------------
 (0) _main                                                13    13      0    1291
                                             22 BANK0     13    13      0
                  _SYSTEM_Initialize
                        _iirDoFilter
                     _iirGetOutValue
                            _iirInit
 ---------------------------------------------------------------------------------
 (1) _iirInit                                              6     2      4     684
                                              4 COMMON     2     2      0
                                             18 BANK0      4     0      4
 ---------------------------------------------------------------------------------
 (1) _iirGetOutValue                                       4     1      3      95
                                              4 COMMON     1     1      0
                                             18 BANK0      3     0      3
 ---------------------------------------------------------------------------------
 (1) _iirDoFilter                                          5     3      2     268
                                              4 COMMON     2     0      2
                                             18 BANK0      3     3      0
                  _iirFilter_2nd_Ord
 ---------------------------------------------------------------------------------
 (2) _iirFilter_2nd_Ord                                    0     0      0       0
 ---------------------------------------------------------------------------------
 (1) _SYSTEM_Initialize                                    0     0      0       0
                    _ADC1_Initialize
                    _DAC1_Initialize
                 _MATHACC_Initialize
              _OSCILLATOR_Initialize
             _PIN_MANAGER_Initialize
                    _TMR1_Initialize
 ---------------------------------------------------------------------------------
 (2) _TMR1_Initialize                                      0     0      0       0
                    _TMR1_StartTimer
 ---------------------------------------------------------------------------------
 (3) _TMR1_StartTimer                                      0     0      0       0
 ---------------------------------------------------------------------------------
 (2) _PIN_MANAGER_Initialize                               0     0      0       0
 ---------------------------------------------------------------------------------
 (2) _OSCILLATOR_Initialize                                0     0      0       0
 ---------------------------------------------------------------------------------
 (2) _MATHACC_Initialize                                   0     0      0       0
 ---------------------------------------------------------------------------------
 (2) _DAC1_Initialize                                      0     0      0       0
 ---------------------------------------------------------------------------------
 (2) _ADC1_Initialize                                      0     0      0       0
 ---------------------------------------------------------------------------------
 Estimated maximum stack depth 3
 ---------------------------------------------------------------------------------
 (Depth) Function   	        Calls       Base Space   Used Autos Params    Refs
 ---------------------------------------------------------------------------------
 (4) _INTERRUPT_InterruptManager                           1     1      0      60
                                              3 COMMON     1     1      0
                           _ADC1_ISR
                           _TMR1_ISR
 ---------------------------------------------------------------------------------
 (5) _TMR1_ISR                                             0     0      0      15
               _ADC1_StartConversion
                         _UpdateTick
 ---------------------------------------------------------------------------------
 (6) _UpdateTick                                           1     1      0       0
                                              0 COMMON     1     1      0
 ---------------------------------------------------------------------------------
 (6) _ADC1_StartConversion                                 2     2      0      15
                                              0 COMMON     2     2      0
 ---------------------------------------------------------------------------------
 (5) _ADC1_ISR                                             0     0      0      45
                _SignalProcessEngine
 ---------------------------------------------------------------------------------
 (6) _SignalProcessEngine                                 19    19      0      45
                                              2 COMMON     1     1      0
                                              0 BANK0     18    18      0
           _ADC1_GetConversionResult
                     _DAC1_SetOutput
 ---------------------------------------------------------------------------------
 (7) _DAC1_SetOutput                                       1     1      0      22
                                              0 COMMON     1     1      0
 ---------------------------------------------------------------------------------
 (7) _ADC1_GetConversionResult                             2     0      2       0
                                              0 COMMON     2     0      2
 ---------------------------------------------------------------------------------
 Estimated maximum stack depth 7
 ---------------------------------------------------------------------------------

 Call Graph Graphs:

 _main (ROOT)
   _SYSTEM_Initialize
     _ADC1_Initialize
     _DAC1_Initialize
     _MATHACC_Initialize
     _OSCILLATOR_Initialize
     _PIN_MANAGER_Initialize
     _TMR1_Initialize
       _TMR1_StartTimer
   _iirDoFilter
     _iirFilter_2nd_Ord
   _iirGetOutValue
   _iirInit

 _INTERRUPT_InterruptManager (ROOT)
   _ADC1_ISR
     _SignalProcessEngine
       _ADC1_GetConversionResult
       _DAC1_SetOutput
   _TMR1_ISR
     _ADC1_StartConversion
     _UpdateTick

 Address spaces:
Name               Size   Autos  Total    Cost      Usage
BIGRAM             3E0      0       0       0        0.0%
NULL                 0      0       0       0        0.0%
CODE                 0      0       0       0        0.0%
BITCOMMON            E      0       0       1        0.0%
BITSFR0              0      0       0       1        0.0%
SFR0                 0      0       0       1        0.0%
COMMON               E      6       A       2       71.4%
BITSFR1              0      0       0       2        0.0%
SFR1                 0      0       0       2        0.0%
BITSFR2              0      0       0       3        0.0%
SFR2                 0      0       0       3        0.0%
STACK                0      0       0       3        0.0%
BITBANK0            50      0       0       4        0.0%
BITSFR3              0      0       0       4        0.0%
SFR3                 0      0       0       4        0.0%
BANK0               50     23      3E       5       77.5%
BITSFR4              0      0       0       5        0.0%
SFR4                 0      0       0       5        0.0%
BITBANK1            50      0       0       6        0.0%
BITSFR5              0      0       0       6        0.0%
SFR5                 0      0       0       6        0.0%
BANK1               50      0       0       7        0.0%
BITSFR6              0      0       0       7        0.0%
SFR6                 0      0       0       7        0.0%
BITBANK2            50      0       0       8        0.0%
BITSFR7              0      0       0       8        0.0%
SFR7                 0      0       0       8        0.0%
BANK2               50      0       0       9        0.0%
BITSFR8              0      0       0       9        0.0%
SFR8                 0      0       0       9        0.0%
BITBANK3            50      0       0      10        0.0%
BITSFR9              0      0       0      10        0.0%
SFR9                 0      0       0      10        0.0%
BANK3               50      0       0      11        0.0%
BITSFR10             0      0       0      11        0.0%
SFR10                0      0       0      11        0.0%
BITBANK4            50      0       0      12        0.0%
BITSFR11             0      0       0      12        0.0%
SFR11                0      0       0      12        0.0%
BANK4               50      0       0      13        0.0%
BITSFR12             0      0       0      13        0.0%
SFR12                0      0       0      13        0.0%
BITBANK5            50      0       0      14        0.0%
BITSFR13             0      0       0      14        0.0%
SFR13                0      0       0      14        0.0%
BANK5               4C      0       0      15        0.0%
BITSFR14             0      0       0      15        0.0%
SFR14                0      0       0      15        0.0%
BITBANK6            50      0       0      16        0.0%
BITSFR15             0      0       0      16        0.0%
SFR15                0      0       0      16        0.0%
BITSFR16             0      0       0      17        0.0%
SFR16                0      0       0      17        0.0%
BANK6                0      0       0      17        0.0%
BITBANK7            50      0       0      18        0.0%
BITSFR17             0      0       0      18        0.0%
SFR17                0      0       0      18        0.0%
BITSFR18             0      0       0      19        0.0%
SFR18                0      0       0      19        0.0%
BANK7                0      0       0      19        0.0%
BITSFR19             0      0       0      20        0.0%
SFR19                0      0       0      20        0.0%
ABS                  0      0      48      20        0.0%
BITBANK8            50      0       0      21        0.0%
BITSFR20             0      0       0      21        0.0%
SFR20                0      0       0      21        0.0%
BITSFR21             0      0       0      22        0.0%
SFR21                0      0       0      22        0.0%
BANK8                0      0       0      22        0.0%
BITBANK9            50      0       0      23        0.0%
BITSFR22             0      0       0      23        0.0%
SFR22                0      0       0      23        0.0%
BITSFR23             0      0       0      24        0.0%
SFR23                0      0       0      24        0.0%
BANK9                0      0       0      24        0.0%
BITBANK10           50      0       0      25        0.0%
BITSFR24             0      0       0      25        0.0%
SFR24                0      0       0      25        0.0%
BITSFR25             0      0       0      26        0.0%
SFR25                0      0       0      26        0.0%
BANK10               0      0       0      26        0.0%
BITBANK11           50      0       0      27        0.0%
BITSFR26             0      0       0      27        0.0%
SFR26                0      0       0      27        0.0%
BITSFR27             0      0       0      28        0.0%
SFR27                0      0       0      28        0.0%
BANK11               0      0       0      28        0.0%
BITBANK12           20      0       0      29        0.0%
BITSFR28             0      0       0      29        0.0%
SFR28                0      0       0      29        0.0%
BITSFR29             0      0       0      30        0.0%
SFR29                0      0       0      30        0.0%
BANK12               0      0       0      30        0.0%
BITSFR30             0      0       0      31        0.0%
SFR30                0      0       0      31        0.0%
DATA                 0      0      48      31        0.0%
BITSFR31             0      0       0      32        0.0%
SFR31                0      0       0      32        0.0%


Microchip Technology PIC Macro Assembler V1.35 build -356382666 
Symbol Table                                                                                   Wed Jan 27 00:46:00 2016

                        __CFG_CP$OFF 0000                         iirDoFilter@f 0034  
                        __CFG_LVP$ON 0000                      _DAC1_Initialize 0392  
                                u625 00B6                                  u635 00EB  
                    _timer1ReloadVal 0076                         __CFG_BORV$LO 0000  
                                wreg 0009                         __CFG_IESO$ON 0000  
                     _DAC1_SetOutput 03A3                         __CFG_ZCD$OFF 0000  
                               l1323 0305                                 l1333 0319  
                               l1309 0265                                 l1381 0117  
                               l1357 0095                                 l1369 00AC  
                   __end_of_ADC1_ISR 03A3                                 _LATA 010C  
                               _LATB 010D                                 _LATC 010E  
                               _FSR0 0004                                 _WPUB 020D  
                               _WPUC 020E                                 u58m0 005E  
                               u59m0 0075                         __CFG_WRT$OFF 0000  
                      __CFG_FCMEN$ON 0000                                 _main 003D  
                               fsr0h 0005                                 fsr1h 0007  
                               fsr0l 0004                                 indf0 0000  
                               indf1 0001                                 fsr1l 0006  
                               btemp 007E                        __CFG_BOREN$ON 0000  
                               ltemp 007E                                 start 0020  
                               ttemp 007E                                 wtemp 007E  
        __size_of_MATHACC_Initialize 0004        __size_of_ADC1_StartConversion 000E  
     __size_of_OSCILLATOR_Initialize 0006        __end_of_OSCILLATOR_Initialize 0392  
                              ?_main 0070                        __CFG_WDTE$OFF 0000  
                    _TMR1_StartTimer 03AC                                _T1CON 0018  
                              i1l231 0013                                i1l235 001B  
             __end_of_DAC1_SetOutput 03A8                                _TMR1H 0017  
                              _TMR1L 0016                                u34_25 0150  
                              u35_25 0181                                u36_25 01A5  
                              _TRISA 008C                                _TRISB 008D  
                              _TRISC 008E                     __end_of_TMR1_ISR 034F  
                    __end_of_iirInit 0267                                main@i 0041  
            __end_of_TMR1_Initialize 0340                                ltemp0 007E  
                              ltemp1 0082                                ltemp2 0086  
                              ltemp3 0080                                ttemp0 007E  
                              ttemp1 0081                                ttemp2 0084  
                              ttemp3 0087                                ttemp4 007F  
                              status 0003                                wtemp0 007E  
                              wtemp1 0080                                wtemp2 0082  
                              wtemp3 0084                                wtemp4 0086  
                              wtemp5 0088                                wtemp6 007F  
                     __CFG_MCLRE$OFF 0000                      __initialization 0022  
                       __end_of_main 0135              __end_of_DAC1_Initialize 0398  
                     __CFG_LPBOR$OFF 0000          ?_INTERRUPT_InterruptManager 0070  
                             ??_main 0036          ADC1_StartConversion@channel 0071  
                    ?_DAC1_SetOutput 0070                       __CFG_PLLEN$OFF 0000  
                             _ADCON0 009D                               _ADCON1 009E  
                             _ADCON2 009F                               _ADRESH 009C  
                             _ADRESL 009B                               _ANSELA 018C  
                             _ANSELB 018D                               _ANSELC 018E  
                             _T1GCON 0019                               i1l1083 01D3  
         ??_ADC1_GetConversionResult 0072                               _OSCCON 0099  
                     __CFG_PWRTE$OFF 0000                 __size_of_iirDoFilter 001E  
            DAC1_SetOutput@inputData 0070              __end_of_TMR1_StartTimer 03AF  
                     __CFG_STVREN$ON 0000                     iirDoFilter@input 0074  
                          ?_ADC1_ISR 0070             __size_of_ADC1_Initialize 000A  
                          ??_iirInit 0074                           _UpdateTick 034F  
                   ??_iirGetOutValue 0074                     ?_TMR1_Initialize 0070  
                  _SYSTEM_Initialize 031D              __end_of__initialization 0039  
                  _iirFilter_2nd_Ord 0268         __size_of_SignalProcessEngine 00BC  
                 ?_SYSTEM_Initialize 0070                   ?_iirFilter_2nd_Ord 0070  
                     __pcstackCOMMON 0070                  ??_SYSTEM_Initialize 0074  
                   ?_DAC1_Initialize 0070                            ?_TMR1_ISR 0070  
                ??_iirFilter_2nd_Ord 0074                           ??_ADC1_ISR 0073  
                     _OPTION_REGbits 0095            __end_of_SYSTEM_Initialize 032F  
                         __pbssBANK0 0043                           __pnvCOMMON 0076  
                         __pmaintext 003D                     ?_TMR1_StartTimer 0070  
                         ??_TMR1_ISR 0072                           __pintentry 0004  
                            _PID1K1H 0591                              _PID1K1L 0590  
                            _PID1CON 0614                              _PID1INH 058F  
                            _PID1INL 058E                      __CFG_WDTCCS$SWC 0000  
                        ?_UpdateTick 0070                              _OSCSTAT 009A  
                            _OSCTUNE 0098                    ??_ADC1_Initialize 0074  
       __end_of_ADC1_StartConversion 036C           __end_of_MATHACC_Initialize 03AC  
                  __end_of_iirCoef_a 0382                    __end_of_iirCoef_b 037E  
                   ??_DAC1_SetOutput 0070                              __ptext1 01F1  
                            __ptext2 030B                              __ptext3 02ED  
                            __ptext4 031D                              __ptext5 032F  
                            __ptext6 03AC                              __ptext7 02CE  
                            __ptext8 038C                              __ptext9 03A8  
                            _iirInit 01F1                            _T1CONbits 0018  
              _OSCILLATOR_Initialize 038C             ??_PIN_MANAGER_Initialize 0074  
                          _PID1OUTHH 0599                            _PID1OUTHL 0598  
                          _PID1OUTLH 0597                            _PID1OUTLL 0596  
         __size_of_SYSTEM_Initialize 0012                              clrloop0 036D  
               end_of_initialization 0039                  __size_of_UpdateTick 000F  
                         _timeQuanta 0079                         __pstringtext 0378  
                         _shouldCopy 0046                  _SignalProcessEngine 0135  
                  __size_of_ADC1_ISR 0005                     __CFG_FOSC$INTOSC 0000  
                      ??_iirDoFilter 0076                 ?_SignalProcessEngine 0070  
               _ADC1_StartConversion 035E    __size_of_ADC1_GetConversionResult 0006  
          ?_ADC1_GetConversionResult 0070                    __size_of_TMR1_ISR 000F  
                    iirGetOutValue@f 0074               ?_OSCILLATOR_Initialize 0070  
                start_initialization 0022                         _iirStructure 0045  
    __size_of_PIN_MANAGER_Initialize 001F                ??_SignalProcessEngine 0020  
       SignalProcessEngine@dacResult 0072             __size_of_TMR1_Initialize 0011  
                __end_of_iirDoFilter 030B                ?_ADC1_StartConversion 0070  
                    _ADC1_Initialize 0382                  iirDoFilter@__fsrTmp 0032  
                          _adcBuffer 21DC                          __pbssBIGRAM 21DC  
           __size_of_DAC1_Initialize 0006                         ??_UpdateTick 0070  
                        __pbssCOMMON 0078                            _dacBuffer 22DE  
                          ___latbits 0002                        __pcstackBANK0 0020  
             _PIN_MANAGER_Initialize 02CE                   __end_of_UpdateTick 035E  
            __size_of_iirGetOutValue 0012                     __CFG_PPS1WAY$OFF 0000  
                           _DAC1CON0 0118                             _DAC1CON1 0119  
                          _iirCoef_a 037E                            _iirCoef_b 0378  
                           _ADC1_ISR 039E         ??_INTERRUPT_InterruptManager 0073  
                           ?_iirInit 0032                   _MATHACC_Initialize 03A8  
           __size_of_TMR1_StartTimer 0003                   main@inactiveBuffer 0040  
                ?_MATHACC_Initialize 0070                             _PID1SETH 058D  
                           _PID1SETL 058C                             _PID1OUTU 059A  
                        _iirDoFilter 02ED                            clear_ram0 036C  
                           _PIE1bits 0090  __size_of_INTERRUPT_InterruptManager 001C  
            __end_of_ADC1_Initialize 038C                             _PIR1bits 0010  
                           _PIR5bits 0014               ??_ADC1_StartConversion 0070  
               ??_MATHACC_Initialize 0074                 __CFG_WDTCPS$WDTCPS1F 0000  
                        _PID1CONbits 0614                             _TMR1_ISR 0340  
                  ??_TMR1_Initialize 0074                           _ADCON0bits 009D  
                  ??_DAC1_Initialize 0074     __end_of_ADC1_GetConversionResult 039E  
            ??_OSCILLATOR_Initialize 0074                     __size_of_iirInit 0076  
            __size_of_DAC1_SetOutput 0005                             __ptext10 0392  
                           __ptext11 0382                             __ptext13 0340  
                         _T1GCONbits 0019                             __ptext14 034F  
                           __ptext15 035E                             __ptext16 039E  
                           __ptext17 0135                             __ptext18 03A3  
                           __ptext19 0398                    ??_TMR1_StartTimer 0074  
                      __size_of_main 00F8                 __CFG_WDTCWS$WDTCWSSW 0000  
                    iirInit@a_coeffs 0032                      iirInit@b_coeffs 0034  
                   ?_ADC1_Initialize 0070                       _iirGetOutValue 030B  
                    main@timeCurrent 003E                             int$flags 007E  
 __end_of_INTERRUPT_InterruptManager 0020           _INTERRUPT_InterruptManager 0004  
                           iirInit@f 0075                         _outOfFilters 0078  
                         _INTCONbits 000B          __end_of_SignalProcessEngine 01F1  
                        _tickCounter 0043                             intlevel1 0000  
            ?_PIN_MANAGER_Initialize 0070                    __CFG_CLKOUTEN$OFF 0000  
             __end_of_iirGetOutValue 031D             _ADC1_GetConversionResult 0398  
                       _shouldFilter 0047       __end_of_PIN_MANAGER_Initialize 02ED  
                       ?_iirDoFilter 0074                        _filterMemPool 0048  
                    ?_iirGetOutValue 0032                      _TMR1_Initialize 032F  
